///////////////////////////////////////////////////////////////////////////////
//                                                                            /
// IAR C/C++ Compiler V7.60.1.40026 for 8051            14/Sep/2011  19:56:27 /
// Copyright (C) 2004-2010 IAR Systems AB.                                    /
//                                                                            /
//    Core               =  plain                                             /
//    Code model         =  banked                                            /
//    Data model         =  large                                             /
//    Calling convention =  xdata reentrant                                   /
//    Constant location  =  data_rom                                          /
//    Dptr setup         =  1,16                                              /
//    Source file        =  H:\3gbox\zigbee\zigbee×ÛºÏÓ¦ÓÃÑÝÊ¾´úÂë\cc2530     /
//                          ×ÛºÏÊµÑé z-stack 2.4.0-1.4.0\Projects\zstack\Samp /
//                          les\SimpleApp\Source\ys-srf05.c                   /
//    Command line       =  -f "H:\3gbox\zigbee\zigbee×ÛºÏÓ¦ÓÃÑÝÊ¾´úÂë\cc2530 /
//                           ×ÛºÏÊµÑé z-stack 2.4.0-1.4.0\Projects\zstack\Sam /
//                          ples\SimpleApp\CC2530DB\..\..\..\Tools\CC2530DB\f /
//                          8wEndev.cfg" (-DCPU32MHZ -DROOT=__near_func       /
//                          -DMAC_CFG_TX_DATA_MAX=3 -DMAC_CFG_TX_MAX=6        /
//                          -DMAC_CFG_RX_MAX=3) -f "H:\3gbox\zigbee\zigbee×Ûº /
//                          ÏÓ¦ÓÃÑÝÊ¾´úÂë\cc2530 ×ÛºÏÊµÑé z-stack             /
//                          2.4.0-1.4.0\Projects\zstack\Samples\SimpleApp\CC2 /
//                          530DB\..\..\..\Tools\CC2530DB\f8wConfig.cfg"      /
//                          (-DZIGBEEPRO -DSECURE=0 -DZG_SECURE_DYNAMIC=0     /
//                          -DREFLECTOR -DDEFAULT_CHANLIST=0x00000800         /
//                          -DZDAPP_CONFIG_PAN_ID=0xFFFF                      /
//                          -DNWK_START_DELAY=100 -DEXTENDED_JOINING_RANDOM_M /
//                          ASK=0x007F -DBEACON_REQUEST_DELAY=100             /
//                          -DBEACON_REQ_DELAY_MASK=0x00FF                    /
//                          -DLINK_STATUS_JITTER_MASK=0x007F                  /
//                          -DROUTE_EXPIRY_TIME=30 -DAPSC_ACK_WAIT_DURATION_P /
//                          OLLED=3000 -DNWK_INDIRECT_MSG_TIMEOUT=7           /
//                          -DMAX_RREQ_ENTRIES=8 -DAPSC_MAX_FRAME_RETRIES=3   /
//                          -DNWK_MAX_DATA_RETRIES=2                          /
//                          -DMAX_POLL_FAILURE_RETRIES=2 -DMAX_BCAST=9        /
//                          -DAPS_MAX_GROUPS=16 -DMAX_RTG_ENTRIES=40          /
//                          -DNWK_MAX_BINDING_ENTRIES=4                       /
//                          -DMAX_BINDING_CLUSTER_IDS=4                       /
//                          "-DDEFAULT_KEY={0x01, 0x03, 0x05, 0x07, 0x09,     /
//                          0x0B, 0x0D, 0x0F, 0x00, 0x02, 0x04, 0x06, 0x08,   /
//                          0x0A, 0x0C, 0x0D}" -DMAC_MAX_FRAME_SIZE=116       /
//                          -DZDNWKMGR_MIN_TRANSMISSIONS=20 "-DCONST=const    /
//                          __code" -DGENERIC=__generic                       /
//                          -DRFD_RCVC_ALWAYS_ON=FALSE -DPOLL_RATE=1000       /
//                          -DQUEUED_POLL_RATE=100 -DRESPONSE_POLL_RATE=100)  /
//                          -DREJOIN_POLL_RATE=440 "H:\3gbox\zigbee\zigbee×Ûº /
//                          ÏÓ¦ÓÃÑÝÊ¾´úÂë\cc2530 ×ÛºÏÊµÑé z-stack             /
//                          2.4.0-1.4.0\Projects\zstack\Samples\SimpleApp\Sou /
//                          rce\ys-srf05.c" -D NWK_AUTO_POLL -D               /
//                          HOLD_AUTO_START -D REFLECTOR -D xPOWER_SAVING -D  /
//                          NV_INIT -D xNV_RESTORE -D xZTOOL_P1 -D xMT_TASK   /
//                          -D xMT_SYS_FUNC -D xMT_SAPI_FUNC -D               /
//                          xMT_SAPI_CB_FUNC -lC "H:\3gbox\zigbee\zigbee×ÛºÏÓ /
//                          ¦ÓÃÑÝÊ¾´úÂë\cc2530 ×ÛºÏÊµÑé z-stack               /
//                          2.4.0-1.4.0\Projects\zstack\Samples\SimpleApp\CC2 /
//                          530DB\SimpleCo2Sensor\List\" -lA                  /
//                          "H:\3gbox\zigbee\zigbee×ÛºÏÓ¦ÓÃÑÝÊ¾´úÂë\cc2530    /
//                          ×ÛºÏÊµÑé z-stack 2.4.0-1.4.0\Projects\zstack\Samp /
//                          les\SimpleApp\CC2530DB\SimpleCo2Sensor\List\"     /
//                          --diag_suppress Pe001,Pa010 -o                    /
//                          "H:\3gbox\zigbee\zigbee×ÛºÏÓ¦ÓÃÑÝÊ¾´úÂë\cc2530    /
//                          ×ÛºÏÊµÑé z-stack 2.4.0-1.4.0\Projects\zstack\Samp /
//                          les\SimpleApp\CC2530DB\SimpleCo2Sensor\Obj\" -e   /
//                          --require_prototypes --no_code_motion --debug     /
//                          --core=plain --dptr=16,1 --data_model=large       /
//                          --code_model=banked --calling_convention=xdata_re /
//                          entrant --place_constants=data_rom                /
//                          --nr_virtual_regs 16 -I                           /
//                          "H:\3gbox\zigbee\zigbee×ÛºÏÓ¦ÓÃÑÝÊ¾´úÂë\cc2530    /
//                          ×ÛºÏÊµÑé z-stack 2.4.0-1.4.0\Projects\zstack\Samp /
//                          les\SimpleApp\CC2530DB\" -I                       /
//                          "H:\3gbox\zigbee\zigbee×ÛºÏÓ¦ÓÃÑÝÊ¾´úÂë\cc2530    /
//                          ×ÛºÏÊµÑé z-stack 2.4.0-1.4.0\Projects\zstack\Samp /
//                          les\SimpleApp\CC2530DB\..\Source\" -I             /
//                          "H:\3gbox\zigbee\zigbee×ÛºÏÓ¦ÓÃÑÝÊ¾´úÂë\cc2530    /
//                          ×ÛºÏÊµÑé z-stack 2.4.0-1.4.0\Projects\zstack\Samp /
//                          les\SimpleApp\CC2530DB\..\..\..\ZMain\TI2530DB\"  /
//                          -I "H:\3gbox\zigbee\zigbee×ÛºÏÓ¦ÓÃÑÝÊ¾´úÂë\cc2530 /
//                           ×ÛºÏÊµÑé z-stack 2.4.0-1.4.0\Projects\zstack\Sam /
//                          ples\SimpleApp\CC2530DB\..\..\..\..\..\Components /
//                          \hal\include\" -I "H:\3gbox\zigbee\zigbee×ÛºÏÓ¦ÓÃ /
//                          ÑÝÊ¾´úÂë\cc2530 ×ÛºÏÊµÑé z-stack                  /
//                          2.4.0-1.4.0\Projects\zstack\Samples\SimpleApp\CC2 /
//                          530DB\..\..\..\..\..\Components\hal\target\CC2530 /
//                          EB\" -I "H:\3gbox\zigbee\zigbee×ÛºÏÓ¦ÓÃÑÝÊ¾´úÂë\c /
//                          c2530 ×ÛºÏÊµÑé z-stack 2.4.0-1.4.0\Projects\zstac /
//                          k\Samples\SimpleApp\CC2530DB\..\..\..\..\..\Compo /
//                          nents\mac\include\" -I "H:\3gbox\zigbee\zigbee×Ûº /
//                          ÏÓ¦ÓÃÑÝÊ¾´úÂë\cc2530 ×ÛºÏÊµÑé z-stack             /
//                          2.4.0-1.4.0\Projects\zstack\Samples\SimpleApp\CC2 /
//                          530DB\..\..\..\..\..\Components\mac\high_level\"  /
//                          -I "H:\3gbox\zigbee\zigbee×ÛºÏÓ¦ÓÃÑÝÊ¾´úÂë\cc2530 /
//                           ×ÛºÏÊµÑé z-stack 2.4.0-1.4.0\Projects\zstack\Sam /
//                          ples\SimpleApp\CC2530DB\..\..\..\..\..\Components /
//                          \mac\low_level\srf04\" -I                         /
//                          "H:\3gbox\zigbee\zigbee×ÛºÏÓ¦ÓÃÑÝÊ¾´úÂë\cc2530    /
//                          ×ÛºÏÊµÑé z-stack 2.4.0-1.4.0\Projects\zstack\Samp /
//                          les\SimpleApp\CC2530DB\..\..\..\..\..\Components\ /
//                          mac\low_level\srf04\single_chip\" -I              /
//                          "H:\3gbox\zigbee\zigbee×ÛºÏÓ¦ÓÃÑÝÊ¾´úÂë\cc2530    /
//                          ×ÛºÏÊµÑé z-stack 2.4.0-1.4.0\Projects\zstack\Samp /
//                          les\SimpleApp\CC2530DB\..\..\..\..\..\Components\ /
//                          mt\" -I "H:\3gbox\zigbee\zigbee×ÛºÏÓ¦ÓÃÑÝÊ¾´úÂë\c /
//                          c2530 ×ÛºÏÊµÑé z-stack 2.4.0-1.4.0\Projects\zstac /
//                          k\Samples\SimpleApp\CC2530DB\..\..\..\..\..\Compo /
//                          nents\osal\include\" -I                           /
//                          "H:\3gbox\zigbee\zigbee×ÛºÏÓ¦ÓÃÑÝÊ¾´úÂë\cc2530    /
//                          ×ÛºÏÊµÑé z-stack 2.4.0-1.4.0\Projects\zstack\Samp /
//                          les\SimpleApp\CC2530DB\..\..\..\..\..\Components\ /
//                          osal\mcu\ccsoc\" -I "H:\3gbox\zigbee\zigbee×ÛºÏÓ¦ /
//                          ÓÃÑÝÊ¾´úÂë\cc2530 ×ÛºÏÊµÑé z-stack                /
//                          2.4.0-1.4.0\Projects\zstack\Samples\SimpleApp\CC2 /
//                          530DB\..\..\..\..\..\Components\services\saddr\"  /
//                          -I "H:\3gbox\zigbee\zigbee×ÛºÏÓ¦ÓÃÑÝÊ¾´úÂë\cc2530 /
//                           ×ÛºÏÊµÑé z-stack 2.4.0-1.4.0\Projects\zstack\Sam /
//                          ples\SimpleApp\CC2530DB\..\..\..\..\..\Components /
//                          \services\sdata\" -I "H:\3gbox\zigbee\zigbee×ÛºÏÓ /
//                          ¦ÓÃÑÝÊ¾´úÂë\cc2530 ×ÛºÏÊµÑé z-stack               /
//                          2.4.0-1.4.0\Projects\zstack\Samples\SimpleApp\CC2 /
//                          530DB\..\..\..\..\..\Components\stack\af\" -I     /
//                          "H:\3gbox\zigbee\zigbee×ÛºÏÓ¦ÓÃÑÝÊ¾´úÂë\cc2530    /
//                          ×ÛºÏÊµÑé z-stack 2.4.0-1.4.0\Projects\zstack\Samp /
//                          les\SimpleApp\CC2530DB\..\..\..\..\..\Components\ /
//                          stack\nwk\" -I "H:\3gbox\zigbee\zigbee×ÛºÏÓ¦ÓÃÑÝÊ /
//                          ¾´úÂë\cc2530 ×ÛºÏÊµÑé z-stack                     /
//                          2.4.0-1.4.0\Projects\zstack\Samples\SimpleApp\CC2 /
//                          530DB\..\..\..\..\..\Components\stack\sapi\" -I   /
//                          "H:\3gbox\zigbee\zigbee×ÛºÏÓ¦ÓÃÑÝÊ¾´úÂë\cc2530    /
//                          ×ÛºÏÊµÑé z-stack 2.4.0-1.4.0\Projects\zstack\Samp /
//                          les\SimpleApp\CC2530DB\..\..\..\..\..\Components\ /
//                          stack\sec\" -I "H:\3gbox\zigbee\zigbee×ÛºÏÓ¦ÓÃÑÝÊ /
//                          ¾´úÂë\cc2530 ×ÛºÏÊµÑé z-stack                     /
//                          2.4.0-1.4.0\Projects\zstack\Samples\SimpleApp\CC2 /
//                          530DB\..\..\..\..\..\Components\stack\sys\" -I    /
//                          "H:\3gbox\zigbee\zigbee×ÛºÏÓ¦ÓÃÑÝÊ¾´úÂë\cc2530    /
//                          ×ÛºÏÊµÑé z-stack 2.4.0-1.4.0\Projects\zstack\Samp /
//                          les\SimpleApp\CC2530DB\..\..\..\..\..\Components\ /
//                          stack\zdo\" -I "H:\3gbox\zigbee\zigbee×ÛºÏÓ¦ÓÃÑÝÊ /
//                          ¾´úÂë\cc2530 ×ÛºÏÊµÑé z-stack                     /
//                          2.4.0-1.4.0\Projects\zstack\Samples\SimpleApp\CC2 /
//                          530DB\..\..\..\..\..\Components\zmac\" -I         /
//                          "H:\3gbox\zigbee\zigbee×ÛºÏÓ¦ÓÃÑÝÊ¾´úÂë\cc2530    /
//                          ×ÛºÏÊµÑé z-stack 2.4.0-1.4.0\Projects\zstack\Samp /
//                          les\SimpleApp\CC2530DB\..\..\..\..\..\Components\ /
//                          zmac\f8w\" -I "D:\Program Files\IAR               /
//                          Systems\Embedded Workbench 5.4\8051\INC\" -I      /
//                          "D:\Program Files\IAR Systems\Embedded Workbench  /
//                          5.4\8051\INC\CLIB\" -Ohz                          /
//    List file          =  H:\3gbox\zigbee\zigbee×ÛºÏÓ¦ÓÃÑÝÊ¾´úÂë\cc2530     /
//                          ×ÛºÏÊµÑé z-stack 2.4.0-1.4.0\Projects\zstack\Samp /
//                          les\SimpleApp\CC2530DB\SimpleCo2Sensor\List\ys-sr /
//                          f05.s51                                           /
//                                                                            /
//                                                                            /
///////////////////////////////////////////////////////////////////////////////

        NAME `ys-srf05`

        RTMODEL "__calling_convention", "xdata_reentrant"
        RTMODEL "__code_model", "banked"
        RTMODEL "__core", "plain"
        RTMODEL "__data_model", "large"
        RTMODEL "__dptr_size", "16"
        RTMODEL "__extended_stack", "disabled"
        RTMODEL "__location_for_constants", "data"
        RTMODEL "__number_of_dptrs", "1"
        RTMODEL "__rt_version", "1"

        RSEG DOVERLAY:DATA:NOROOT(0)
        RSEG IOVERLAY:IDATA:NOROOT(0)
        RSEG ISTACK:IDATA:NOROOT(0)
        RSEG PSTACK:XDATA:NOROOT(0)
        RSEG XSTACK:XDATA:NOROOT(0)

        EXTERN ?BANKED_ENTER_XDATA
        EXTERN ?BANKED_LEAVE_XDATA
        EXTERN ?BDISPATCH
        EXTERN ?BRET
        EXTERN ?FLT_DIV
        EXTERN ?FLT_MUL
        EXTERN ?FLT_TO_L
        EXTERN ?L_MOV_X
        EXTERN ?L_TO_FLT
        EXTERN ?UL_TO_FLT
        EXTERN ?US_SHR
        EXTERN ?V0
        EXTERN __INIT_XDATA_I
        EXTERN __INIT_XDATA_Z

        FUNCTION ??Delay_10us?relay,0203H
        PUBLIC ??srf05Distance?relay
        FUNCTION ??srf05Distance?relay,0203H
        PUBLIC ??srf05Init?relay
        FUNCTION ??srf05Init?relay,0203H
        FUNCTION ??srf05Start?relay,0203H
        PUBWEAK CLKCONCMD
        FUNCTION Delay_10us,0203H
        ARGFRAME XSTACK, 0, STACK
        ARGFRAME IOVERLAY, 0, STATIC
        ARGFRAME DOVERLAY, 0, STATIC
        PUBWEAK P1DIR
        PUBWEAK P1SEL
        PUBWEAK P2DIR
        PUBWEAK P2SEL
        PUBWEAK T1CNTH
        PUBWEAK T1CNTL
        PUBWEAK T1CTL
        PUBWEAK _A_P1
        PUBWEAK _A_P2
        PUBWEAK __Constant_0
        PUBWEAK __Constant_41880000
        PUBLIC srf05Distance
        FUNCTION srf05Distance,021203H
        ARGFRAME XSTACK, 0, STACK
        LOCFRAME XSTACK, 22, STACK
        PUBLIC srf05Init
        FUNCTION srf05Init,0203H
        ARGFRAME XSTACK, 0, STACK
        LOCFRAME XSTACK, 10, STACK
        FUNCTION srf05Start,021203H
        ARGFRAME XSTACK, 22, STACK
        ARGFRAME IOVERLAY, 0, STATIC
        ARGFRAME DOVERLAY, 0, STATIC
        LOCFRAME ISTACK, 2, STACK
        
        CFI Names cfiNames0
        CFI StackFrame CFA_SP SP IDATA
        CFI StackFrame CFA_PSP16 PSP16 XDATA
        CFI StackFrame CFA_XSP16 XSP16 XDATA
        CFI StaticOverlayFrame CFA_IOVERLAY IOVERLAY
        CFI StaticOverlayFrame CFA_DOVERLAY DOVERLAY
        CFI Resource `PSW.CY`:1, `B.BR0`:1, `B.BR1`:1, `B.BR2`:1, `B.BR3`:1
        CFI Resource `B.BR4`:1, `B.BR5`:1, `B.BR6`:1, `B.BR7`:1, `VB.BR8`:1
        CFI Resource `VB.BR9`:1, `VB.BR10`:1, `VB.BR11`:1, `VB.BR12`:1
        CFI Resource `VB.BR13`:1, `VB.BR14`:1, `VB.BR15`:1, VB:8, B:8, A:8
        CFI Resource PSW:8, DPL0:8, DPH0:8, R0:8, R1:8, R2:8, R3:8, R4:8, R5:8
        CFI Resource R6:8, R7:8, V0:8, V1:8, V2:8, V3:8, V4:8, V5:8, V6:8, V7:8
        CFI Resource V8:8, V9:8, V10:8, V11:8, V12:8, V13:8, V14:8, V15:8, SP:8
        CFI Resource PSPH:8, PSPL:8, PSP16:16, XSPH:8, XSPL:8, XSP16:16
        CFI VirtualResource ?RET:24
        CFI Resource ?BRET_EXT:8
        CFI VirtualResource ?RET_HIGH:8, ?RET_LOW:8
        CFI ResourceParts PSP16 PSPH, PSPL
        CFI ResourceParts XSP16 XSPH, XSPL
        CFI ResourceParts ?RET ?BRET_EXT, ?RET_HIGH, ?RET_LOW
        CFI EndNames cfiNames0
        
        CFI Common cfiCommon0 Using cfiNames0
        CFI CodeAlign 1
        CFI DataAlign -1
        CFI ReturnAddress ?RET CODE
        CFI CFA_DOVERLAY Used
        CFI CFA_IOVERLAY Used
        CFI CFA_SP SP+-3
        CFI CFA_PSP16 PSP16+0
        CFI CFA_XSP16 XSP16+0
        CFI `PSW.CY` SameValue
        CFI `B.BR0` SameValue
        CFI `B.BR1` SameValue
        CFI `B.BR2` SameValue
        CFI `B.BR3` SameValue
        CFI `B.BR4` SameValue
        CFI `B.BR5` SameValue
        CFI `B.BR6` SameValue
        CFI `B.BR7` SameValue
        CFI `VB.BR8` SameValue
        CFI `VB.BR9` SameValue
        CFI `VB.BR10` SameValue
        CFI `VB.BR11` SameValue
        CFI `VB.BR12` SameValue
        CFI `VB.BR13` SameValue
        CFI `VB.BR14` SameValue
        CFI `VB.BR15` SameValue
        CFI VB SameValue
        CFI B Undefined
        CFI A Undefined
        CFI PSW SameValue
        CFI DPL0 SameValue
        CFI DPH0 SameValue
        CFI R0 Undefined
        CFI R1 Undefined
        CFI R2 Undefined
        CFI R3 Undefined
        CFI R4 Undefined
        CFI R5 Undefined
        CFI R6 SameValue
        CFI R7 SameValue
        CFI V0 SameValue
        CFI V1 SameValue
        CFI V2 SameValue
        CFI V3 SameValue
        CFI V4 SameValue
        CFI V5 SameValue
        CFI V6 SameValue
        CFI V7 SameValue
        CFI V8 SameValue
        CFI V9 SameValue
        CFI V10 SameValue
        CFI V11 SameValue
        CFI V12 SameValue
        CFI V13 SameValue
        CFI V14 SameValue
        CFI V15 SameValue
        CFI PSPH Undefined
        CFI PSPL Undefined
        CFI XSPH Undefined
        CFI XSPL Undefined
        CFI ?RET Concat
        CFI ?BRET_EXT Frame(CFA_SP, 3)
        CFI ?RET_HIGH Frame(CFA_SP, 2)
        CFI ?RET_LOW Frame(CFA_SP, 1)
        CFI EndCommon cfiCommon0
        
srf05Distance       SYMBOL "srf05Distance"
??srf05Distance?relay SYMBOL "?relay", srf05Distance
srf05Init           SYMBOL "srf05Init"
??srf05Init?relay   SYMBOL "?relay", srf05Init

// H:\3gbox\zigbee\zigbee×ÛºÏÓ¦ÓÃÑÝÊ¾´úÂë\cc2530 ×ÛºÏÊµÑé z-stack 2.4.0-1.4.0\Projects\zstack\Samples\SimpleApp\Source\ys-srf05.c
//    1 #include <ioCC2530.h>

        ASEGN SFR_AN:DATA:NOROOT,090H
// union <unnamed> volatile __sfr _A_P1
_A_P1:
        DS 1

        ASEGN SFR_AN:DATA:NOROOT,0a0H
// union <unnamed> volatile __sfr _A_P2
_A_P2:
        DS 1

        ASEGN SFR_AN:DATA:NOROOT,0c6H
// unsigned char volatile __sfr CLKCONCMD
CLKCONCMD:
        DS 1

        ASEGN SFR_AN:DATA:NOROOT,0e2H
// unsigned char volatile __sfr T1CNTL
T1CNTL:
        DS 1

        ASEGN SFR_AN:DATA:NOROOT,0e3H
// unsigned char volatile __sfr T1CNTH
T1CNTH:
        DS 1

        ASEGN SFR_AN:DATA:NOROOT,0e4H
// unsigned char volatile __sfr T1CTL
T1CTL:
        DS 1

        ASEGN SFR_AN:DATA:NOROOT,0f4H
// unsigned char volatile __sfr P1SEL
P1SEL:
        DS 1

        ASEGN SFR_AN:DATA:NOROOT,0f5H
// unsigned char volatile __sfr P2SEL
P2SEL:
        DS 1

        ASEGN SFR_AN:DATA:NOROOT,0feH
// unsigned char volatile __sfr P1DIR
P1DIR:
        DS 1

        ASEGN SFR_AN:DATA:NOROOT,0ffH
// unsigned char volatile __sfr P2DIR
P2DIR:
        DS 1
//    2 
//    3 #include "ys-srf05.h"
//    4 
//    5 #define   PIN_EN_CFG      (P1SEL &= ~0x08, P1DIR |= 0x08)
//    6 #define   PIN_ECHO_CFG    (P2SEL &= ~0x01, P2DIR &= ~0x01)
//    7 
//    8 #define   WAVE_EN_PIN     P1_3
//    9 #define   WAVE_INPUT_PIN  P2_0
//   10 

        RSEG XDATA_Z:XDATA:NOROOT(0)
//   11 static char clkidx;
clkidx:
        DS 1
        REQUIRE __INIT_XDATA_Z

        RSEG XDATA_Z:XDATA:NOROOT(0)
//   12 static unsigned int clk;
clk:
        DS 2
        REQUIRE __INIT_XDATA_Z

        RSEG XDATA_I:XDATA:NOROOT(0)
        DATA
//   13 static unsigned clks[] = {32000, 16000, 8000, 4000, 2000, 1000, 500, 250};
clks:
        DS 16
        REQUIRE `?<Initializer for clks>`
        REQUIRE __INIT_XDATA_I
//   14 
//   15 
//   16 #pragma optimize=none

        RSEG BANKED_CODE:CODE:NOROOT(0)
//   17 static void  Delay_10us(void)
Delay_10us:
        CFI Block cfiBlock0 Using cfiCommon0
        CFI Function Delay_10us
//   18       {
        ; Saved register size: 0
        ; Auto size: 0
//   19         char i = 10;
//   20         i--;
//   21         i--;
//   22         i--;
//   23         i--;
//   24         i--;
//   25         i--;
//   26        }
        LJMP    ?BRET
        CFI EndBlock cfiBlock0
//   27 

        RSEG BANKED_CODE:CODE:NOROOT(0)
//   28 void srf05Init(void)
srf05Init:
        CFI Block cfiBlock1 Using cfiCommon0
        CFI Function srf05Init
//   29 {
        MOV     A,#-0xa
        LCALL   ?BANKED_ENTER_XDATA
        CFI DPH0 load(1, XDATA, add(CFA_XSP16, literal(-1)))
        CFI DPL0 load(1, XDATA, add(CFA_XSP16, literal(-2)))
        CFI ?BRET_EXT load(1, XDATA, add(CFA_XSP16, literal(-3)))
        CFI ?RET_HIGH load(1, XDATA, add(CFA_XSP16, literal(-4)))
        CFI ?RET_LOW load(1, XDATA, add(CFA_XSP16, literal(-5)))
        CFI R7 load(1, XDATA, add(CFA_XSP16, literal(-6)))
        CFI V1 load(1, XDATA, add(CFA_XSP16, literal(-7)))
        CFI V0 load(1, XDATA, add(CFA_XSP16, literal(-8)))
        CFI VB load(1, XDATA, add(CFA_XSP16, literal(-9)))
        CFI R6 load(1, XDATA, add(CFA_XSP16, literal(-10)))
        CFI CFA_SP SP+0
        CFI CFA_XSP16 add(XSP16, 10)
        ; Saved register size: 10
        ; Auto size: 0
//   30     PIN_EN_CFG;
        ANL     0xf4,#0xf7
        ORL     0xfe,#0x8
//   31     PIN_ECHO_CFG;
        ANL     0xf5,#0xfe
        ANL     0xff,#0xfe
//   32     
//   33     WAVE_EN_PIN = 0;
        CLR     0x90.3
//   34     
//   35     clkidx = (CLKCONCMD>>3)&0x07;
        MOV     A,0xc6
        RRC     A
        RRC     A
        RRC     A
        ANL     A,#0x1f
        ANL     A,#0x7
        MOV     DPTR,#clkidx
        MOVX    @DPTR,A
//   36     
//   37     clk = (clks[clkidx]/128);
        CLR     C
        RLC     A
        ADD     A,#(clks & 0xff)
        MOV     DPL,A
        CLR     A
        ADDC    A,#((clks >> 8) & 0xff)
        MOV     DPH,A
        MOVX    A,@DPTR
        MOV     ?V0 + 0,A
        INC     DPTR
        MOVX    A,@DPTR
        MOV     ?V0 + 1,A
        MOV     A,#0x7
        MOV     R0,#?V0 + 0
        LCALL   ?US_SHR
        MOV     DPTR,#clk
        MOV     A,?V0 + 0
        MOVX    @DPTR,A
        INC     DPTR
        MOV     A,?V0 + 1
        MOVX    @DPTR,A
//   38 }
        MOV     R7,#0x2
        LJMP    ?BANKED_LEAVE_XDATA
        CFI EndBlock cfiBlock1
        REQUIRE CLKCONCMD
        REQUIRE _A_P1
        REQUIRE P1SEL
        REQUIRE P2SEL
        REQUIRE P1DIR
        REQUIRE P2DIR
//   39 

        RSEG BANKED_CODE:CODE:NOROOT(0)
//   40 static void srf05Start(void)
srf05Start:
        CFI Block cfiBlock2 Using cfiCommon0
        CFI Function srf05Start
//   41 {
        FUNCALL srf05Start, Delay_10us
        LOCFRAME ISTACK, 2, STACK
        LOCFRAME PSTACK, 0, STACK
        LOCFRAME XSTACK, 0, STACK
        LOCFRAME IOVERLAY, 0, STATIC
        LOCFRAME DOVERLAY, 0, STATIC
        ARGFRAME ISTACK, 2, STACK
        ARGFRAME PSTACK, 0, STACK
        ARGFRAME XSTACK, 0, STACK
        ARGFRAME IOVERLAY, 0, STATIC
        ARGFRAME DOVERLAY, 0, STATIC
        FUNCALL srf05Start, Delay_10us
        LOCFRAME ISTACK, 2, STACK
        LOCFRAME PSTACK, 0, STACK
        LOCFRAME XSTACK, 0, STACK
        LOCFRAME IOVERLAY, 0, STATIC
        LOCFRAME DOVERLAY, 0, STATIC
        ARGFRAME ISTACK, 2, STACK
        ARGFRAME PSTACK, 0, STACK
        ARGFRAME XSTACK, 0, STACK
        ARGFRAME IOVERLAY, 0, STATIC
        ARGFRAME DOVERLAY, 0, STATIC
        PUSH    DPL
        CFI DPL0 Frame(CFA_SP, 4)
        CFI CFA_SP SP+-4
        PUSH    DPH
        CFI DPH0 Frame(CFA_SP, 5)
        CFI CFA_SP SP+-5
        ; Saved register size: 2
        ; Auto size: 0
//   42   WAVE_EN_PIN = 1;
        SETB    0x90.3
//   43   Delay_10us();
        ; Setup parameters for call to function Delay_10us
        LCALL   ??Delay_10us?relay
//   44   Delay_10us();
        ; Setup parameters for call to function Delay_10us
        LCALL   ??Delay_10us?relay
//   45   WAVE_EN_PIN = 0;
        CLR     0x90.3
//   46 }
        POP     DPH
        CFI DPH0 SameValue
        CFI CFA_SP SP+-4
        POP     DPL
        CFI DPL0 SameValue
        CFI CFA_SP SP+-3
        LJMP    ?BRET
        CFI EndBlock cfiBlock2
        REQUIRE _A_P1
//   47 #pragma optimize=none

        RSEG BANKED_CODE:CODE:NOROOT(0)
//   48 int srf05Distance(void)
srf05Distance:
        CFI Block cfiBlock3 Using cfiCommon0
        CFI Function srf05Distance
//   49 {
        FUNCALL srf05Distance, srf05Start
        LOCFRAME ISTACK, 0, STACK
        LOCFRAME PSTACK, 0, STACK
        LOCFRAME XSTACK, 22, STACK
        LOCFRAME IOVERLAY, 0, STATIC
        LOCFRAME DOVERLAY, 0, STATIC
        ARGFRAME ISTACK, 0, STACK
        ARGFRAME PSTACK, 0, STACK
        ARGFRAME XSTACK, 22, STACK
        ARGFRAME IOVERLAY, 0, STATIC
        ARGFRAME DOVERLAY, 0, STATIC
        MOV     A,#-0x16
        LCALL   ?BANKED_ENTER_XDATA
        CFI DPH0 load(1, XDATA, add(CFA_XSP16, literal(-1)))
        CFI DPL0 load(1, XDATA, add(CFA_XSP16, literal(-2)))
        CFI ?BRET_EXT load(1, XDATA, add(CFA_XSP16, literal(-3)))
        CFI ?RET_HIGH load(1, XDATA, add(CFA_XSP16, literal(-4)))
        CFI ?RET_LOW load(1, XDATA, add(CFA_XSP16, literal(-5)))
        CFI R7 load(1, XDATA, add(CFA_XSP16, literal(-6)))
        CFI V13 load(1, XDATA, add(CFA_XSP16, literal(-7)))
        CFI V12 load(1, XDATA, add(CFA_XSP16, literal(-8)))
        CFI V11 load(1, XDATA, add(CFA_XSP16, literal(-9)))
        CFI V10 load(1, XDATA, add(CFA_XSP16, literal(-10)))
        CFI V9 load(1, XDATA, add(CFA_XSP16, literal(-11)))
        CFI V8 load(1, XDATA, add(CFA_XSP16, literal(-12)))
        CFI V7 load(1, XDATA, add(CFA_XSP16, literal(-13)))
        CFI V6 load(1, XDATA, add(CFA_XSP16, literal(-14)))
        CFI V5 load(1, XDATA, add(CFA_XSP16, literal(-15)))
        CFI V4 load(1, XDATA, add(CFA_XSP16, literal(-16)))
        CFI V3 load(1, XDATA, add(CFA_XSP16, literal(-17)))
        CFI V2 load(1, XDATA, add(CFA_XSP16, literal(-18)))
        CFI V1 load(1, XDATA, add(CFA_XSP16, literal(-19)))
        CFI V0 load(1, XDATA, add(CFA_XSP16, literal(-20)))
        CFI VB load(1, XDATA, add(CFA_XSP16, literal(-21)))
        CFI R6 load(1, XDATA, add(CFA_XSP16, literal(-22)))
        CFI CFA_SP SP+0
        CFI CFA_XSP16 add(XSP16, 22)
        ; Saved register size: 22
        ; Auto size: 0
//   50   unsigned int i = 0;
        MOV     R6,#0x0
        MOV     R7,#0x0
//   51   float cnt = 0;
        MOV     DPTR,#__Constant_0
        MOV     R0,#?V0 + 0
        LCALL   ?L_MOV_X
//   52   int d;
//   53   
//   54   
//   55   T1CNTL = 0;
        MOV     0xe2,#0x0
//   56   srf05Start();
        ; Setup parameters for call to function srf05Start
        LCALL   ??srf05Start?relay
//   57   while ((0 == WAVE_INPUT_PIN) && ++i);
??srf05Distance_0:
        MOV     C,0xa0.0
        JC      ??srf05Distance_1
        MOV     A,#0x1
        ADD     A,R6
        MOV     R0,A
        MOV     A,#0x0
        ADDC    A,R7
        MOV     R1,A
        MOV     A,R0
        MOV     R6,A
        MOV     A,R1
        MOV     R7,A
        MOV     A,#0x0
        XRL     A,R0
        JNZ     ??srf05Distance_2
        MOV     A,#0x0
        XRL     A,R1
??srf05Distance_2:
        JNZ     ??srf05Distance_0
//   58   if (i == 0) return -1;
??srf05Distance_1:
        MOV     A,#0x0
        XRL     A,R6
        JNZ     ??srf05Distance_3
        MOV     A,#0x0
        XRL     A,R7
??srf05Distance_3:
        JNZ     ??srf05Distance_4
        MOV     R2,#-0x1
        MOV     R3,#-0x1
        LJMP    ??srf05Distance_5 & 0xFFFF
//   59   T1CTL = 0x0D; //128div
??srf05Distance_4:
        MOV     0xe4,#0xd
//   60   i = 0;
        MOV     R6,#0x0
        MOV     R7,#0x0
//   61   while (WAVE_INPUT_PIN && ++i);
??srf05Distance_6:
        MOV     C,0xa0.0
        JNC     ??srf05Distance_7
        MOV     A,#0x1
        ADD     A,R6
        MOV     R0,A
        MOV     A,#0x0
        ADDC    A,R7
        MOV     R1,A
        MOV     A,R0
        MOV     R6,A
        MOV     A,R1
        MOV     R7,A
        MOV     A,#0x0
        XRL     A,R0
        JNZ     ??srf05Distance_8
        MOV     A,#0x0
        XRL     A,R1
??srf05Distance_8:
        JNZ     ??srf05Distance_6
//   62   T1CTL = 0x00;
??srf05Distance_7:
        MOV     0xe4,#0x0
//   63   if (i == 0) return -1;
        MOV     A,#0x0
        XRL     A,R6
        JNZ     ??srf05Distance_9
        MOV     A,#0x0
        XRL     A,R7
??srf05Distance_9:
        JNZ     ??srf05Distance_10
        MOV     R2,#-0x1
        MOV     R3,#-0x1
        SJMP    ??srf05Distance_5
//   64   
//   65   cnt = (T1CNTH<<8) | (T1CNTL);
??srf05Distance_10:
        MOV     A,0xe3
        MOV     R0,A
        CLR     A
        XCH     A,R0
        MOV     R1,A
        MOV     A,0xe2
        MOV     ?V0 + 1,#0x0
        ORL     A,R0
        MOV     ?V0 + 0,A
        MOV     A,?V0 + 1
        ORL     A,R1
        MOV     ?V0 + 1,A
        MOV     A,?V0 + 1
        RLC     A
        SUBB    A,0xE0 /* A   */
        MOV     ?V0 + 2,A
        MOV     ?V0 + 3,A
        MOV     R0,#?V0 + 0
        LCALL   ?L_TO_FLT
        MOV     ?V0 + 4,?V0 + 0
        MOV     ?V0 + 5,?V0 + 1
        MOV     ?V0 + 6,?V0 + 2
        MOV     ?V0 + 7,?V0 + 3
//   66   d = (int)((cnt) / clk * 17);
        MOV     ?V0 + 0,?V0 + 4
        MOV     ?V0 + 1,?V0 + 5
        MOV     ?V0 + 2,?V0 + 6
        MOV     ?V0 + 3,?V0 + 7
        MOV     DPTR,#clk
        MOVX    A,@DPTR
        MOV     ?V0 + 8,A
        INC     DPTR
        MOVX    A,@DPTR
        MOV     ?V0 + 9,A
        CLR     A
        MOV     ?V0 + 10,A
        MOV     ?V0 + 11,A
        MOV     R0,#?V0 + 8
        LCALL   ?UL_TO_FLT
        MOV     R0,#?V0 + 0
        MOV     R1,#?V0 + 8
        LCALL   ?FLT_DIV
        MOV     DPTR,#__Constant_41880000
        MOV     R0,#?V0 + 8
        LCALL   ?L_MOV_X
        MOV     R0,#?V0 + 0
        MOV     R1,#?V0 + 8
        LCALL   ?FLT_MUL
        MOV     R0,#?V0 + 0
        LCALL   ?FLT_TO_L
        MOV     ?V0 + 12,?V0 + 0
        MOV     ?V0 + 13,?V0 + 1
//   67   
//   68   return d;
        MOV     R2,?V0 + 12
        MOV     R3,?V0 + 13
??srf05Distance_5:
        MOV     R7,#0xe
        LJMP    ?BANKED_LEAVE_XDATA
        CFI EndBlock cfiBlock3
        REQUIRE _A_P2
        REQUIRE T1CNTL
        REQUIRE T1CNTH
        REQUIRE T1CTL
//   69 }

        RSEG XDATA_ID:CODE:NOROOT(0)
        DATA
`?<Initializer for clks>`:
        DW 32000, 16000, 8000, 4000, 2000, 1000, 500, 250

        RSEG XDATA_ROM_C:CONST:REORDER:NOROOT(0)
        DATA
__Constant_0:
        DD 0H

        RSEG XDATA_ROM_C:CONST:REORDER:NOROOT(0)
        DATA
__Constant_41880000:
        DD 41880000H

        RSEG BANK_RELAYS:CODE:REORDER:NOROOT(0)
??Delay_10us?relay:
        LCALL   ?BDISPATCH
        DATA
        DC24    Delay_10us

        RSEG BANK_RELAYS:CODE:REORDER:NOROOT(0)
??srf05Init?relay:
        LCALL   ?BDISPATCH
        DATA
        DC24    srf05Init

        RSEG BANK_RELAYS:CODE:REORDER:NOROOT(0)
??srf05Start?relay:
        LCALL   ?BDISPATCH
        DATA
        DC24    srf05Start

        RSEG BANK_RELAYS:CODE:REORDER:NOROOT(0)
??srf05Distance?relay:
        LCALL   ?BDISPATCH
        DATA
        DC24    srf05Distance

        END
//   70 
// 
// 333 bytes in segment BANKED_CODE
//  24 bytes in segment BANK_RELAYS
//  10 bytes in segment SFR_AN
//  16 bytes in segment XDATA_I
//  16 bytes in segment XDATA_ID
//   8 bytes in segment XDATA_ROM_C
//   3 bytes in segment XDATA_Z
// 
// 373 bytes of CODE  memory
//   0 bytes of CONST memory (+  8 bytes shared)
//   0 bytes of DATA  memory (+ 10 bytes shared)
//  19 bytes of XDATA memory
//
//Errors: none
//Warnings: 1
