###############################################################################
#                                                                             #
# IAR C/C++ Compiler V7.60.1.40026 for 8051             09/Jan/2012  21:02:57 #
# Copyright (C) 2004-2010 IAR Systems AB.                                     #
#                                                                             #
#    Core               =  plain                                              #
#    Code model         =  banked                                             #
#    Data model         =  large                                              #
#    Calling convention =  xdata reentrant                                    #
#    Constant location  =  data_rom                                           #
#    Dptr setup         =  1,16                                               #
#    Source file        =  F:\Zigbee节点控制程序\Projects\zstack\Samples\Simp #
#                          leApp\Source\SimpleDistanceSensor.c                #
#    Command line       =  -f F:\Zigbee节点控制程序\Projects\zstack\Samples\S #
#                          impleApp\CC2530DB\..\..\..\Tools\CC2530DB\f8wEndev #
#                          .cfg (-DCPU32MHZ -DROOT=__near_func                #
#                          -DMAC_CFG_TX_DATA_MAX=3 -DMAC_CFG_TX_MAX=6         #
#                          -DMAC_CFG_RX_MAX=3) -f F:\Zigbee节点控制程序\Proje #
#                          cts\zstack\Samples\SimpleApp\CC2530DB\..\..\..\Too #
#                          ls\CC2530DB\f8wConfig.cfg (-DZIGBEEPRO -DSECURE=0  #
#                          -DZG_SECURE_DYNAMIC=0 -DREFLECTOR                  #
#                          -DDEFAULT_CHANLIST=0x00000800                      #
#                          -DZDAPP_CONFIG_PAN_ID=0xFFFF                       #
#                          -DNWK_START_DELAY=100 -DEXTENDED_JOINING_RANDOM_MA #
#                          SK=0x007F -DBEACON_REQUEST_DELAY=100               #
#                          -DBEACON_REQ_DELAY_MASK=0x00FF                     #
#                          -DLINK_STATUS_JITTER_MASK=0x007F                   #
#                          -DROUTE_EXPIRY_TIME=30 -DAPSC_ACK_WAIT_DURATION_PO #
#                          LLED=3000 -DNWK_INDIRECT_MSG_TIMEOUT=7             #
#                          -DMAX_RREQ_ENTRIES=8 -DAPSC_MAX_FRAME_RETRIES=3    #
#                          -DNWK_MAX_DATA_RETRIES=2                           #
#                          -DMAX_POLL_FAILURE_RETRIES=2 -DMAX_BCAST=9         #
#                          -DAPS_MAX_GROUPS=16 -DMAX_RTG_ENTRIES=40           #
#                          -DNWK_MAX_BINDING_ENTRIES=4                        #
#                          -DMAX_BINDING_CLUSTER_IDS=4 "-DDEFAULT_KEY={0x01,  #
#                          0x03, 0x05, 0x07, 0x09, 0x0B, 0x0D, 0x0F, 0x00,    #
#                          0x02, 0x04, 0x06, 0x08, 0x0A, 0x0C, 0x0D}"         #
#                          -DMAC_MAX_FRAME_SIZE=116                           #
#                          -DZDNWKMGR_MIN_TRANSMISSIONS=20 "-DCONST=const     #
#                          __code" -DGENERIC=__generic                        #
#                          -DRFD_RCVC_ALWAYS_ON=FALSE -DPOLL_RATE=1000        #
#                          -DQUEUED_POLL_RATE=100 -DRESPONSE_POLL_RATE=100)   #
#                          -DREJOIN_POLL_RATE=440 F:\Zigbee节点控制程序\Proje #
#                          cts\zstack\Samples\SimpleApp\Source\SimpleDistance #
#                          Sensor.c -D NWK_AUTO_POLL -D HOLD_AUTO_START -D    #
#                          REFLECTOR -D POWER_SAVING -D NV_INIT -D            #
#                          xNV_RESTORE -D xZTOOL_P1 -D xMT_TASK -D            #
#                          xMT_SYS_FUNC -D xMT_SAPI_FUNC -D xMT_SAPI_CB_FUNC  #
#                          -lC F:\Zigbee节点控制程序\Projects\zstack\Samples\ #
#                          SimpleApp\CC2530DB\SimpleSwitchEB\List\ -lA        #
#                          F:\Zigbee节点控制程序\Projects\zstack\Samples\Simp #
#                          leApp\CC2530DB\SimpleSwitchEB\List\                #
#                          --diag_suppress Pe001,Pa010 -o                     #
#                          F:\Zigbee节点控制程序\Projects\zstack\Samples\Simp #
#                          leApp\CC2530DB\SimpleSwitchEB\Obj\ -e              #
#                          --require_prototypes --no_code_motion --debug      #
#                          --core=plain --dptr=16,1 --data_model=large        #
#                          --code_model=banked --calling_convention=xdata_ree #
#                          ntrant --place_constants=data_rom                  #
#                          --nr_virtual_regs 16 -I F:\Zigbee节点控制程序\Proj #
#                          ects\zstack\Samples\SimpleApp\CC2530DB\ -I         #
#                          F:\Zigbee节点控制程序\Projects\zstack\Samples\Simp #
#                          leApp\CC2530DB\..\Source\ -I                       #
#                          F:\Zigbee节点控制程序\Projects\zstack\Samples\Simp #
#                          leApp\CC2530DB\..\..\..\ZMain\TI2530DB\ -I         #
#                          F:\Zigbee节点控制程序\Projects\zstack\Samples\Simp #
#                          leApp\CC2530DB\..\..\..\..\..\Components\hal\inclu #
#                          de\ -I F:\Zigbee节点控制程序\Projects\zstack\Sampl #
#                          es\SimpleApp\CC2530DB\..\..\..\..\..\Components\ha #
#                          l\target\CC2530EB\ -I F:\Zigbee节点控制程序\Projec #
#                          ts\zstack\Samples\SimpleApp\CC2530DB\..\..\..\..\. #
#                          .\Components\mac\include\ -I                       #
#                          F:\Zigbee节点控制程序\Projects\zstack\Samples\Simp #
#                          leApp\CC2530DB\..\..\..\..\..\Components\mac\high_ #
#                          level\ -I F:\Zigbee节点控制程序\Projects\zstack\Sa #
#                          mples\SimpleApp\CC2530DB\..\..\..\..\..\Components #
#                          \mac\low_level\srf04\ -I                           #
#                          F:\Zigbee节点控制程序\Projects\zstack\Samples\Simp #
#                          leApp\CC2530DB\..\..\..\..\..\Components\mac\low_l #
#                          evel\srf04\single_chip\ -I                         #
#                          F:\Zigbee节点控制程序\Projects\zstack\Samples\Simp #
#                          leApp\CC2530DB\..\..\..\..\..\Components\mt\ -I    #
#                          F:\Zigbee节点控制程序\Projects\zstack\Samples\Simp #
#                          leApp\CC2530DB\..\..\..\..\..\Components\osal\incl #
#                          ude\ -I F:\Zigbee节点控制程序\Projects\zstack\Samp #
#                          les\SimpleApp\CC2530DB\..\..\..\..\..\Components\o #
#                          sal\mcu\ccsoc\ -I F:\Zigbee节点控制程序\Projects\z #
#                          stack\Samples\SimpleApp\CC2530DB\..\..\..\..\..\Co #
#                          mponents\services\saddr\ -I                        #
#                          F:\Zigbee节点控制程序\Projects\zstack\Samples\Simp #
#                          leApp\CC2530DB\..\..\..\..\..\Components\services\ #
#                          sdata\ -I F:\Zigbee节点控制程序\Projects\zstack\Sa #
#                          mples\SimpleApp\CC2530DB\..\..\..\..\..\Components #
#                          \stack\af\ -I F:\Zigbee节点控制程序\Projects\zstac #
#                          k\Samples\SimpleApp\CC2530DB\..\..\..\..\..\Compon #
#                          ents\stack\nwk\ -I F:\Zigbee节点控制程序\Projects\ #
#                          zstack\Samples\SimpleApp\CC2530DB\..\..\..\..\..\C #
#                          omponents\stack\sapi\ -I                           #
#                          F:\Zigbee节点控制程序\Projects\zstack\Samples\Simp #
#                          leApp\CC2530DB\..\..\..\..\..\Components\stack\sec #
#                          \ -I F:\Zigbee节点控制程序\Projects\zstack\Samples #
#                          \SimpleApp\CC2530DB\..\..\..\..\..\Components\stac #
#                          k\sys\ -I F:\Zigbee节点控制程序\Projects\zstack\Sa #
#                          mples\SimpleApp\CC2530DB\..\..\..\..\..\Components #
#                          \stack\zdo\ -I F:\Zigbee节点控制程序\Projects\zsta #
#                          ck\Samples\SimpleApp\CC2530DB\..\..\..\..\..\Compo #
#                          nents\zmac\ -I F:\Zigbee节点控制程序\Projects\zsta #
#                          ck\Samples\SimpleApp\CC2530DB\..\..\..\..\..\Compo #
#                          nents\zmac\f8w\ -I "D:\Program Files\IAR           #
#                          Systems\Embedded Workbench 5.4\8051\INC\" -I       #
#                          "D:\Program Files\IAR Systems\Embedded Workbench   #
#                          5.4\8051\INC\CLIB\" -Ohz                           #
#    List file          =  F:\Zigbee节点控制程序\Projects\zstack\Samples\Simp #
#                          leApp\CC2530DB\SimpleSwitchEB\List\SimpleDistanceS #
#                          ensor.lst                                          #
#    Object file        =  F:\Zigbee节点控制程序\Projects\zstack\Samples\Simp #
#                          leApp\CC2530DB\SimpleSwitchEB\Obj\SimpleDistanceSe #
#                          nsor.r51                                           #
#                                                                             #
#                                                                             #
###############################################################################

F:\Zigbee节点控制程序\Projects\zstack\Samples\SimpleApp\Source\SimpleDistanceSensor.c
      1          
      2          /**************************************************************************************************
      3            Filename:       SimpleSwitch.c
      4            Revised:        $Date: 2007-10-27 17:16:54 -0700 (Sat, 27 Oct 2007) $
      5            Revision:       $Revision: 15793 $
      6          
      7            Description:    Sample application for a simple light switch utilizing the Simple API.
      8          
      9          
     10            Copyright 2007 Texas Instruments Incorporated. All rights reserved.
     11          
     12            IMPORTANT: Your use of this Software is limited to those specific rights
     13            granted under the terms of a software license agreement between the user
     14            who downloaded the software, his/her employer (which must be your employer)
     15            and Texas Instruments Incorporated (the "License").  You may not use this
     16            Software unless you agree to abide by the terms of the License. The License
     17            limits your use, and you acknowledge, that the Software may not be modified,
     18            copied or distributed unless embedded on a Texas Instruments microcontroller
     19            or used solely and exclusively in conjunction with a Texas Instruments radio
     20            frequency transceiver, which is integrated into your product.  Other than for
     21            the foregoing purpose, you may not use, reproduce, copy, prepare derivative
     22            works of, modify, distribute, perform, display or sell this Software and/or
     23            its documentation for any purpose.
     24          
     25            YOU FURTHER ACKNOWLEDGE AND AGREE THAT THE SOFTWARE AND DOCUMENTATION ARE
     26            PROVIDED AS IS?WITHOUT WARRANTY OF ANY KIND, EITHER EXPRESS OR IMPLIED, 
     27            INCLUDING WITHOUT LIMITATION, ANY WARRANTY OF MERCHANTABILITY, TITLE, 
     28            NON-INFRINGEMENT AND FITNESS FOR A PARTICULAR PURPOSE. IN NO EVENT SHALL
     29            TEXAS INSTRUMENTS OR ITS LICENSORS BE LIABLE OR OBLIGATED UNDER CONTRACT,
     30            NEGLIGENCE, STRICT LIABILITY, CONTRIBUTION, BREACH OF WARRANTY, OR OTHER
     31            LEGAL EQUITABLE THEORY ANY DIRECT OR INDIRECT DAMAGES OR EXPENSES
     32            INCLUDING BUT NOT LIMITED TO ANY INCIDENTAL, SPECIAL, INDIRECT, PUNITIVE
     33            OR CONSEQUENTIAL DAMAGES, LOST PROFITS OR LOST DATA, COST OF PROCUREMENT
     34            OF SUBSTITUTE GOODS, TECHNOLOGY, SERVICES, OR ANY CLAIMS BY THIRD PARTIES
     35            (INCLUDING BUT NOT LIMITED TO ANY DEFENSE THEREOF), OR OTHER SIMILAR COSTS.
     36          
     37            Should you have any questions regarding your right to use this Software,
     38            contact Texas Instruments Incorporated at www.TI.com. 
     39          **************************************************************************************************/
     40          
     41          /******************************************************************************
     42           * INCLUDES
     43           */
     44          
     45          #include "ZComDef.h"
     46          #include "OSAL.h"
     47          #include "sapi.h"
     48          #include "hal_key.h"
     49          #include "hal_led.h"
     50          #include "hal_adc.h"
     51          #include "hal_mcu.h"
     52          #include "SimpleApp.h"
     53          
     54          
     55          #include "mt.h"
     56          
     57          #include "ys-srf05.h"
     58          
     59          /*********************************************************************
     60           * CONSTANTS
     61           */
     62          
     63          // Application States
     64          #define APP_INIT                           0    // Initial state
     65          #define APP_START                          1    // Sensor has joined network
     66          #define APP_BOUND                          2    // Sensor is bound to collector
     67          
     68          // Application osal event identifiers
     69          // Bit mask of events ( from 0x0000 to 0x00FF )
     70          #define MY_START_EVT                0x0001
     71          #define MY_REPORT_DISTANCE_EVT          0x0002
     72          #define MY_REPORT_BATT_EVT          0x0004
     73          #define MY_FIND_COLLECTOR_EVT       0x0008
     74          /*********************************************************************
     75           * TYPEDEFS
     76           */
     77          
     78          /*********************************************************************
     79           * LOCAL VARIABLES
     80           */
     81          

   \                                 In  segment XDATA_Z, align 1, keep-with-next
     82          static uint8 myAppState = APP_INIT;
                              ^
Warning[Pe550]: variable "myAppState" was set but never used
   \                     myAppState:
   \   000000                DS 1
   \   000001                REQUIRE __INIT_XDATA_Z
     83          

   \                                 In  segment XDATA_I, align 1, keep-with-next
     84          static uint16 myStartRetryDelay = 10000;      // milliseconds
   \                     myStartRetryDelay:
   \   000000                DS 2
   \   000002                REQUIRE `?<Initializer for myStartRetryDelay>`
   \   000002                REQUIRE __INIT_XDATA_I
     85          
     86          
     87          

   \                                 In  segment XDATA_Z, align 1, keep-with-next
     88          static byte myWorkMode = 0;
   \                     myWorkMode:
   \   000000                DS 1
   \   000001                REQUIRE __INIT_XDATA_Z
     89          static byte myTrigeMode = 0;
                             ^
Warning[Pe177]: variable "myTrigeMode" was declared but never referenced
     90          /*********************************************************************
     91           * GLOBAL VARIABLES
     92           */
     93          
     94          // Inputs and Outputs for Switch device
     95          #define NUM_IN_CMD_SENSOR                 2
     96          #define NUM_OUT_CMD_SENSOR                3
     97          
     98          

   \                                 In  segment XDATA_ROM_C, align 1
     99          const cId_t zb_InCmdList[NUM_IN_CMD_SENSOR] =
   \                     zb_InCmdList:
   \   000000   01000200     DW 1, 2
    100          {
    101            ID_CMD_READ_REQ,
    102            ID_CMD_WRITE_REQ,
    103          };

   \                                 In  segment XDATA_ROM_C, align 1
    104          const cId_t zb_OutCmdList[NUM_OUT_CMD_SENSOR] =
   \                     zb_OutCmdList:
   \   000000   01800280     DW 32769, 32770, 3
   \            0300    
    105          {
    106              ID_CMD_READ_RES,
    107              ID_CMD_WRITE_RES,
    108              ID_CMD_REPORT,
    109          };
    110          
    111          
    112          #define TEMP_REPORT     0x01
    113          #define BATTERY_REPORT 0x02
    114          
    115          
    116          // Define SimpleDescriptor for Switch device

   \                                 In  segment XDATA_ROM_C, align 1
    117          const SimpleDescriptionFormat_t zb_SimpleDesc =
   \                     zb_SimpleDesc:
   \   000000   02           DB 2
   \   000001   100F0100     DW 3856, 1
   \   000005   0102         DB 1, 2
   \   000007   ....         DW zb_InCmdList
   \   000009   03           DB 3
   \   00000A   ....         DW zb_OutCmdList
    118          {
    119            MY_ENDPOINT_ID,             //  Endpoint
    120            MY_PROFILE_ID,              //  Profile ID
    121            DEV_ID_SENTEMP,              //  Device ID
    122            DEVICE_VERSION_SENSOR,      //  Device Version
    123            0,                          //  Reserved
    124            NUM_IN_CMD_SENSOR,          //  Number of Input Commands
    125            (cId_t *) zb_InCmdList,             //  Input Command List
    126            NUM_OUT_CMD_SENSOR,         //  Number of Output Commands
    127            (cId_t *) zb_OutCmdList     //  Output Command List
    128          };
    129          
    130          /********************************************************
    131           *
    132           */
    133          void zb_HanderMsg(osal_event_hdr_t *msg);
    134          
    135          /*********************************************************************
    136           * LOCAL FUNCTIONS
    137           */
    138          
    139          
    140          
    141          
    142          static int paramWrite(uint16 pid, byte *dat);
    143          static int paramRead(uint16 pid, byte *dat);
    144          
    145          /*****************************************************************************
    146           * @fn          zb_HandleOsalEvent
    147           *
    148           * @brief       The zb_HandleOsalEvent function is called by the operating
    149           *              system when a task event is set
    150           *
    151           * @param       event - Bitmask containing the events that have been set
    152           *
    153           * @return      none
    154           */

   \                                 In  segment BANKED_CODE, align 1, keep-with-next
    155          void zb_HandleOsalEvent( uint16 event )
   \                     zb_HandleOsalEvent:
    156          {
   \   000000   74F6         MOV     A,#-0xa
   \   000002   12....       LCALL   ?BANKED_ENTER_XDATA
   \   000005                ; Saved register size: 10
   \   000005                ; Auto size: 6
   \   000005   74FA         MOV     A,#-0x6
   \   000007   12....       LCALL   ?ALLOC_XSTACK8
   \   00000A   EA           MOV     A,R2
   \   00000B   FE           MOV     R6,A
   \   00000C   EB           MOV     A,R3
   \   00000D   FF           MOV     R7,A
    157            uint8 pData[4];
    158          
    159            
    160             if (event & ZB_ENTRY_EVENT) {
   \   00000E   7410         MOV     A,#0x10
   \   000010   5F           ANL     A,R7
   \   000011   F9           MOV     R1,A
   \   000012   E4           CLR     A
   \   000013   7001         JNZ     ??zb_HandleOsalEvent_0
   \   000015   E9           MOV     A,R1
   \                     ??zb_HandleOsalEvent_0:
   \   000016   6055         JZ      ??zb_HandleOsalEvent_1
    161                  uint8 startOptions;
    162                  uint8 logicalType;
    163            
    164                  zb_ReadConfiguration( ZCD_NV_LOGICAL_TYPE, sizeof(uint8), &logicalType );
   \   000018                ; Setup parameters for call to function zb_ReadConfiguration
   \   000018   85..82       MOV     DPL,?XSP + 0
   \   00001B   85..83       MOV     DPH,?XSP + 1
   \   00001E   AC82         MOV     R4,DPL
   \   000020   AD83         MOV     R5,DPH
   \   000022   7A01         MOV     R2,#0x1
   \   000024   7987         MOV     R1,#-0x79
   \   000026   12....       LCALL   ??zb_ReadConfiguration?relay
    165                  if ( logicalType != ZG_DEVICETYPE_ENDDEVICE )
   \   000029   85..82       MOV     DPL,?XSP + 0
   \   00002C   85..83       MOV     DPH,?XSP + 1
   \   00002F   E0           MOVX    A,@DPTR
   \   000030   6402         XRL     A,#0x2
   \   000032   600E         JZ      ??zb_HandleOsalEvent_2
    166                  {
    167                    logicalType = ZG_DEVICETYPE_ENDDEVICE;
   \   000034   7402         MOV     A,#0x2
   \   000036   F0           MOVX    @DPTR,A
    168                    zb_WriteConfiguration(ZCD_NV_LOGICAL_TYPE, sizeof(uint8), &logicalType);
   \   000037                ; Setup parameters for call to function zb_WriteConfiguration
   \   000037   AC82         MOV     R4,DPL
   \   000039   AD83         MOV     R5,DPH
   \   00003B   7A01         MOV     R2,#0x1
   \   00003D   7987         MOV     R1,#-0x79
   \   00003F   12....       LCALL   ??zb_WriteConfiguration?relay
    169                  }
    170          
    171                  // Do more configuration if necessary and then restart device with auto-start bit set
    172                  // write endpoint to simple desc...dont pass it in start req..then reset
    173                  zb_ReadConfiguration( ZCD_NV_STARTUP_OPTION, sizeof(uint8), &startOptions );
   \                     ??zb_HandleOsalEvent_2:
   \   000042                ; Setup parameters for call to function zb_ReadConfiguration
   \   000042   7401         MOV     A,#0x1
   \   000044   12....       LCALL   ?XSTACK_DISP0_8
   \   000047   AC82         MOV     R4,DPL
   \   000049   AD83         MOV     R5,DPH
   \   00004B   7A01         MOV     R2,#0x1
   \   00004D   7903         MOV     R1,#0x3
   \   00004F   12....       LCALL   ??zb_ReadConfiguration?relay
    174                  if (startOptions != ZCD_STARTOPT_AUTO_START) {
   \   000052   7401         MOV     A,#0x1
   \   000054   12....       LCALL   ?XSTACK_DISP0_8
   \   000057   E0           MOVX    A,@DPTR
   \   000058   6404         XRL     A,#0x4
   \   00005A   600E         JZ      ??zb_HandleOsalEvent_3
    175                    startOptions = ZCD_STARTOPT_AUTO_START;
   \   00005C   7404         MOV     A,#0x4
   \   00005E   F0           MOVX    @DPTR,A
    176                    zb_WriteConfiguration( ZCD_NV_STARTUP_OPTION, sizeof(uint8), &startOptions );
   \   00005F                ; Setup parameters for call to function zb_WriteConfiguration
   \   00005F   AC82         MOV     R4,DPL
   \   000061   AD83         MOV     R5,DPH
   \   000063   7A01         MOV     R2,#0x1
   \   000065   7903         MOV     R1,#0x3
   \   000067   12....       LCALL   ??zb_WriteConfiguration?relay
    177                  }  
    178                  
    179                  srf05Init();
   \                     ??zb_HandleOsalEvent_3:
   \   00006A                ; Setup parameters for call to function srf05Init
   \   00006A   12....       LCALL   ??srf05Init?relay
    180            }
    181            
    182            if ( event & MY_START_EVT )
   \                     ??zb_HandleOsalEvent_1:
   \   00006D   EE           MOV     A,R6
   \   00006E   A2E0         MOV     C,0xE0 /* A   */.0
   \   000070   5003         JNC     ??zb_HandleOsalEvent_4
    183            {
    184              
    185              zb_StartRequest();
   \   000072                ; Setup parameters for call to function zb_StartRequest
   \   000072   12....       LCALL   ??zb_StartRequest?relay
    186            }
    187            
    188            if (event & MT_SYS_APP_MSG) 
    189            {
    190              /*    HalLedSet( HAL_LED_1, HAL_LED_MODE_BLINK );
    191              
    192              pData[0] = TEMP_REPORT;
    193              pData[1] =  myApp_ReadTemperature();
    194              zb_SendDataRequest( 0xFFFE, SENSOR_REPORT_CMD_ID, 2, pData, 0, AF_ACK_REQUEST, 0 );
    195              */
    196            }
    197            
    198            if ( event & MY_REPORT_DISTANCE_EVT )
   \                     ??zb_HandleOsalEvent_4:
   \   000075   EE           MOV     A,R6
   \   000076   5402         ANL     A,#0x2
   \   000078   6062         JZ      ??CrossCallReturnLabel_0
    199            {
    200              // Read and report temperature value
    201              HalLedSet( HAL_LED_1, HAL_LED_MODE_BLINK );
   \   00007A                ; Setup parameters for call to function HalLedSet
   \   00007A   7A02         MOV     R2,#0x2
   \   00007C   7901         MOV     R1,#0x1
   \   00007E   12....       LCALL   ??HalLedSet?relay
    202              
    203              pData[0] =  0x06;
   \   000081   7402         MOV     A,#0x2
   \   000083   12....       LCALL   ?XSTACK_DISP0_8
   \   000086   7406         MOV     A,#0x6
   \   000088   F0           MOVX    @DPTR,A
    204              pData[1] =  0x02;
   \   000089   7403         MOV     A,#0x3
   \   00008B   12....       LCALL   ?XSTACK_DISP0_8
   \   00008E   7402         MOV     A,#0x2
   \   000090   F0           MOVX    @DPTR,A
    205              pData[2] = 0xff & srf05Distance();
   \   000091                ; Setup parameters for call to function srf05Distance
   \   000091   12....       LCALL   ??srf05Distance?relay
   \   000094   7404         MOV     A,#0x4
   \   000096   12....       LCALL   ?XSTACK_DISP0_8
   \   000099   EA           MOV     A,R2
   \   00009A   F0           MOVX    @DPTR,A
    206              zb_SendDataRequest(0, ID_CMD_REPORT, 3, pData, 0, AF_ACK_REQUEST, 0 );
   \   00009B                ; Setup parameters for call to function zb_SendDataRequest
   \   00009B   75..00       MOV     ?V0 + 0,#0x0
   \   00009E   78..         MOV     R0,#?V0 + 0
   \   0000A0   12....       LCALL   ?PUSH_XSTACK_I_ONE
   \   0000A3   75..10       MOV     ?V0 + 0,#0x10
   \   0000A6   78..         MOV     R0,#?V0 + 0
   \   0000A8   12....       LCALL   ?PUSH_XSTACK_I_ONE
   \   0000AB   75..00       MOV     ?V0 + 0,#0x0
   \   0000AE   78..         MOV     R0,#?V0 + 0
   \   0000B0   12....       LCALL   ?PUSH_XSTACK_I_ONE
   \   0000B3   7405         MOV     A,#0x5
   \   0000B5   12....       LCALL   ?XSTACK_DISP0_8
   \   0000B8   8582..       MOV     ?V0 + 0,DPL
   \   0000BB   8583..       MOV     ?V0 + 1,DPH
   \   0000BE   78..         MOV     R0,#?V0 + 0
   \   0000C0   12....       LCALL   ?PUSH_XSTACK_I_TWO
   \   0000C3   7903         MOV     R1,#0x3
   \   0000C5   7C03         MOV     R4,#0x3
   \   0000C7   7D00         MOV     R5,#0x0
   \   0000C9   7A00         MOV     R2,#0x0
   \   0000CB   7B00         MOV     R3,#0x0
   \   0000CD   12....       LCALL   ??zb_SendDataRequest?relay
   \   0000D0   7405         MOV     A,#0x5
   \   0000D2   12....       LCALL   ?DEALLOC_XSTACK8
    207              osal_start_timerEx( sapi_TaskID, MY_REPORT_DISTANCE_EVT, myWorkMode*1000 );
   \   0000D5                ; Setup parameters for call to function osal_start_timerEx
   \   0000D5   90....       MOV     DPTR,#myWorkMode
   \   0000D8   E0           MOVX    A,@DPTR
   \   0000D9   12....       LCALL   ?Subroutine1 & 0xFFFF
    208            }
    209          }
   \                     ??CrossCallReturnLabel_0:
   \   0000DC   7406         MOV     A,#0x6
   \   0000DE   12....       LCALL   ?DEALLOC_XSTACK8
   \   0000E1                REQUIRE ?Subroutine0
   \   0000E1                ; // Fall through to label ?Subroutine0

   \                                 In  segment BANKED_CODE, align 1, keep-with-next
   \                     ?Subroutine0:
   \   000000   7F02         MOV     R7,#0x2
   \   000002   02....       LJMP    ?BANKED_LEAVE_XDATA

   \                                 In  segment BANKED_CODE, align 1, keep-with-next
   \                     ?Subroutine1:
   \   000000   FC           MOV     R4,A
   \   000001   75F0E8       MOV     B,#-0x18
   \   000004   A4           MUL     AB
   \   000005   CC           XCH     A,R4
   \   000006   AAF0         MOV     R2,B
   \   000008   75F003       MOV     B,#0x3
   \   00000B   A4           MUL     AB
   \   00000C   2A           ADD     A,R2
   \   00000D   FD           MOV     R5,A
   \   00000E   7A02         MOV     R2,#0x2
   \   000010   7B00         MOV     R3,#0x0
   \   000012   90....       MOV     DPTR,#sapi_TaskID
   \   000015   E0           MOVX    A,@DPTR
   \   000016   F9           MOV     R1,A
   \   000017   12....       LCALL   ??osal_start_timerEx?relay
   \   00001A   22           RET
    210          /*********************************************************************
    211           * @fn      zb_HandleKeys
    212           *
    213           * @brief   Handles all key events for this device.
    214           *
    215           * @param   shift - true if in shift/alt.
    216           * @param   keys - bit field for key events. Valid entries:
    217           *                 EVAL_SW4
    218           *                 EVAL_SW3
    219           *                 EVAL_SW2
    220           *                 EVAL_SW1
    221           *
    222           * @return  none
    223           */

   \                                 In  segment BANKED_CODE, align 1, keep-with-next
    224          void zb_HandleKeys( uint8 shift, uint8 keys )
   \                     zb_HandleKeys:
    225          {
   \   000000                ; Saved register size: 0
   \   000000                ; Auto size: 0
    226           
    227          }
   \   000000   02....       LJMP    ?BRET
    228          /******************************************************************************
    229           * @fn          zb_StartConfirm
    230           *
    231           * @brief       The zb_StartConfirm callback is called by the ZigBee stack
    232           *              after a start request operation completes
    233           *
    234           * @param       status - The status of the start operation.  Status of
    235           *                       ZB_SUCCESS indicates the start operation completed
    236           *                       successfully.  Else the status is an error code.
    237           *
    238           * @return      none
    239           */

   \                                 In  segment BANKED_CODE, align 1, keep-with-next
    240          void zb_StartConfirm( uint8 status )
   \                     zb_StartConfirm:
    241          {
   \   000000   74F7         MOV     A,#-0x9
   \   000002   12....       LCALL   ?BANKED_ENTER_XDATA
   \   000005                ; Saved register size: 9
   \   000005                ; Auto size: 0
   \   000005   E9           MOV     A,R1
    242            if ( status == ZB_SUCCESS )
   \   000006   7008         JNZ     ??zb_StartConfirm_0
    243            {
    244              myAppState = APP_START;
   \   000008   7401         MOV     A,#0x1
   \   00000A   90....       MOV     DPTR,#myAppState
   \   00000D   F0           MOVX    @DPTR,A
   \   00000E   8014         SJMP    ??zb_StartConfirm_1
    245              // Set event to bind to a collector
    246              //osal_start_timerEx( sapi_TaskID, MY_FIND_COLLECTOR_EVT, myBindRetryDelay );
    247            }
    248            else
    249            {
    250              // Try joining again later with a delay
    251              osal_start_timerEx( sapi_TaskID, MY_START_EVT, myStartRetryDelay );
   \                     ??zb_StartConfirm_0:
   \   000010                ; Setup parameters for call to function osal_start_timerEx
   \   000010   90....       MOV     DPTR,#myStartRetryDelay
   \   000013   E0           MOVX    A,@DPTR
   \   000014   FC           MOV     R4,A
   \   000015   A3           INC     DPTR
   \   000016   E0           MOVX    A,@DPTR
   \   000017   FD           MOV     R5,A
   \   000018   7A01         MOV     R2,#0x1
   \   00001A   7B00         MOV     R3,#0x0
   \   00001C   90....       MOV     DPTR,#sapi_TaskID
   \   00001F   E0           MOVX    A,@DPTR
   \   000020   F9           MOV     R1,A
   \   000021   12....       LCALL   ??osal_start_timerEx?relay
    252            }
    253          }
   \                     ??zb_StartConfirm_1:
   \   000024   7F01         MOV     R7,#0x1
   \   000026   02....       LJMP    ?BANKED_LEAVE_XDATA
    254          /******************************************************************************
    255           * @fn          zb_SendDataConfirm
    256           *
    257           * @brief       The zb_SendDataConfirm callback function is called by the
    258           *              ZigBee after a send data operation completes
    259           *
    260           * @param       handle - The handle identifying the data transmission.
    261           *              status - The status of the operation.
    262           *
    263           * @return      none
    264           */

   \                                 In  segment BANKED_CODE, align 1, keep-with-next
    265          void zb_SendDataConfirm( uint8 handle, uint8 status )
   \                     zb_SendDataConfirm:
    266          {
   \   000000                ; Saved register size: 0
   \   000000                ; Auto size: 0
    267            if ( status != ZSuccess )
    268            {
    269              // Remove bindings to the existing collector
    270          
    271            }
    272            else
    273            {
    274              // send data ??
    275            }
    276          }
   \   000000   02....       LJMP    ?BRET
    277          /******************************************************************************
    278           * @fn          zb_BindConfirm
    279           *
    280           * @brief       The zb_BindConfirm callback is called by the ZigBee stack
    281           *              after a bind operation completes.
    282           *
    283           * @param       commandId - The command ID of the binding being confirmed.
    284           *              status - The status of the bind operation.
    285           *
    286           * @return      none
    287           */

   \                                 In  segment BANKED_CODE, align 1, keep-with-next
    288          void zb_BindConfirm( uint16 commandId, uint8 status )
   \                     zb_BindConfirm:
    289          {
   \   000000                ; Saved register size: 0
   \   000000                ; Auto size: 0
    290          
    291          
    292          }
   \   000000   02....       LJMP    ?BRET
    293          /******************************************************************************
    294           * @fn          zb_AllowBindConfirm
    295           *
    296           * @brief       Indicates when another device attempted to bind to this device
    297           *
    298           * @param
    299           *
    300           * @return      none
    301           */

   \                                 In  segment BANKED_CODE, align 1, keep-with-next
    302          void zb_AllowBindConfirm( uint16 source )
   \                     zb_AllowBindConfirm:
    303          {
   \   000000                ; Saved register size: 0
   \   000000                ; Auto size: 0
    304          }
   \   000000   02....       LJMP    ?BRET
    305          /******************************************************************************
    306           * @fn          zb_FindDeviceConfirm
    307           *
    308           * @brief       The zb_FindDeviceConfirm callback function is called by the
    309           *              ZigBee stack when a find device operation completes.
    310           *
    311           * @param       searchType - The type of search that was performed.
    312           *              searchKey - Value that the search was executed on.
    313           *              result - The result of the search.
    314           *
    315           * @return      none
    316           */

   \                                 In  segment BANKED_CODE, align 1, keep-with-next
    317          void zb_FindDeviceConfirm( uint8 searchType, uint8 *searchKey, uint8 *result )
   \                     zb_FindDeviceConfirm:
    318          {
   \   000000                ; Saved register size: 0
   \   000000                ; Auto size: 0
    319          }
   \   000000   02....       LJMP    ?BRET
    320          
    321          

   \                                 In  segment BANKED_CODE, align 1, keep-with-next
    322          void zb_HanderMsg(osal_event_hdr_t *msg)
   \                     zb_HanderMsg:
    323          {
   \   000000                ; Saved register size: 0
   \   000000                ; Auto size: 0
    324          }
   \   000000   02....       LJMP    ?BRET
    325          
    326          /******************************************************************************
    327           * @fn          zb_ReceiveDataIndication
    328           *
    329           * @brief       The zb_ReceiveDataIndication callback function is called
    330           *              asynchronously by the ZigBee stack to notify the application
    331           *              when data is received from a peer device.
    332           *
    333           * @param       source - The short address of the peer device that sent the data
    334           *              command - The commandId associated with the data
    335           *              len - The number of bytes in the pData parameter
    336           *              pData - The data sent by the peer device
    337           *
    338           * @return      none
    339           */

   \                                 In  segment BANKED_CODE, align 1, keep-with-next
    340          void zb_ReceiveDataIndication( uint16 source, uint16 command, uint16 len, uint8 *pData  )
   \                     zb_ReceiveDataIndication:
    341          {
   \   000000   74EE         MOV     A,#-0x12
   \   000002   12....       LCALL   ?BANKED_ENTER_XDATA
   \   000005                ; Saved register size: 18
   \   000005                ; Auto size: 64
   \   000005   74C0         MOV     A,#-0x40
   \   000007   12....       LCALL   ?ALLOC_XSTACK8
   \   00000A   8A..         MOV     ?V0 + 0,R2
   \   00000C   8B..         MOV     ?V0 + 1,R3
   \   00000E   8C..         MOV     ?V0 + 8,R4
   \   000010   8D..         MOV     ?V0 + 9,R5
   \   000012   7452         MOV     A,#0x52
   \   000014   12....       LCALL   ?XSTACK_DISP0_8
   \   000017   E0           MOVX    A,@DPTR
   \   000018   F5..         MOV     ?V0 + 4,A
   \   00001A   A3           INC     DPTR
   \   00001B   E0           MOVX    A,@DPTR
   \   00001C   F5..         MOV     ?V0 + 5,A
   \   00001E   7454         MOV     A,#0x54
   \   000020   12....       LCALL   ?XSTACK_DISP0_8
   \   000023   E0           MOVX    A,@DPTR
   \   000024   F5..         MOV     ?V0 + 2,A
   \   000026   A3           INC     DPTR
   \   000027   E0           MOVX    A,@DPTR
   \   000028   F5..         MOV     ?V0 + 3,A
    342            int i;
    343            uint16 pid;
    344            byte dat[64];
    345            byte rlen = 1;
   \   00002A   75..01       MOV     ?V0 + 6,#0x1
    346            int ret;
    347            
    348            HalLedSet( HAL_LED_1, HAL_LED_MODE_OFF );
   \   00002D                ; Setup parameters for call to function HalLedSet
   \   00002D   7A00         MOV     R2,#0x0
   \   00002F   7901         MOV     R1,#0x1
   \   000031   12....       LCALL   ??HalLedSet?relay
    349            HalLedSet( HAL_LED_1, HAL_LED_MODE_BLINK ); 
   \   000034                ; Setup parameters for call to function HalLedSet
   \   000034   7A02         MOV     R2,#0x2
   \   000036   7901         MOV     R1,#0x1
   \   000038   12....       LCALL   ??HalLedSet?relay
    350            switch (command) {
   \   00003B   78..         MOV     R0,#?V0 + 8
   \   00003D   12....       LCALL   ?US_SWITCH_DENSE
   \                     `?<Jumptable for zb_ReceiveDataIndication>_0`:
   \   000040   0100         DW        1
   \   000042   01           DB        1
   \   000043   ....         DW        ??zb_ReceiveDataIndication_0
   \   000045   ....         DW        ??zb_ReceiveDataIndication_1
   \   000047   ....         DW        ??zb_ReceiveDataIndication_2
    351            case ID_CMD_WRITE_REQ:
    352              for (i=0; i<len; i+=2) {
   \                     ??zb_ReceiveDataIndication_2:
   \   000049   7E00         MOV     R6,#0x0
   \   00004B   7F00         MOV     R7,#0x0
   \   00004D   800D         SJMP    ??zb_ReceiveDataIndication_3
   \                     ??zb_ReceiveDataIndication_4:
   \   00004F                ; Setup parameters for call to function osal_start_timerEx
    353                pid = pData[i]<<8 | pData[i+1];
    354                ret = paramWrite(pid, pData+2);
   \   00004F   12....       LCALL   ?Subroutine1 & 0xFFFF
    355                if (ret <= 0) {
    356                  dat[0] = 1;
    357                  zb_SendDataRequest( source, ID_CMD_WRITE_RES, 1, dat, 0, AF_ACK_REQUEST, 0 );
    358                  return;
    359                } 
    360                i += ret;
   \                     ??CrossCallReturnLabel_1:
   \   000052   EE           MOV     A,R6
   \   000053   2403         ADD     A,#0x3
   \   000055   0E           INC     R6
   \   000056   0E           INC     R6
   \   000057   0E           INC     R6
   \   000058   EF           MOV     A,R7
   \   000059   3400         ADDC    A,#0x0
   \   00005B   FF           MOV     R7,A
   \                     ??zb_ReceiveDataIndication_3:
   \   00005C   C3           CLR     C
   \   00005D   EE           MOV     A,R6
   \   00005E   95..         SUBB    A,?V0 + 4
   \   000060   EF           MOV     A,R7
   \   000061   95..         SUBB    A,?V0 + 5
   \   000063   506E         JNC     ??zb_ReceiveDataIndication_5
   \   000065   E5..         MOV     A,?V0 + 2
   \   000067   2E           ADD     A,R6
   \   000068   F582         MOV     DPL,A
   \   00006A   E5..         MOV     A,?V0 + 3
   \   00006C   3F           ADDC    A,R7
   \   00006D   F583         MOV     DPH,A
   \   00006F   E0           MOVX    A,@DPTR
   \   000070   F9           MOV     R1,A
   \   000071   A3           INC     DPTR
   \   000072   E0           MOVX    A,@DPTR
   \   000073   F8           MOV     R0,A
   \   000074   7401         MOV     A,#0x1
   \   000076   68           XRL     A,R0
   \   000077   7003         JNZ     ??zb_ReceiveDataIndication_6
   \   000079   7406         MOV     A,#0x6
   \   00007B   69           XRL     A,R1
   \                     ??zb_ReceiveDataIndication_6:
   \   00007C   701D         JNZ     ??zb_ReceiveDataIndication_7
   \   00007E   85..82       MOV     DPL,?V0 + 2
   \   000081   85..83       MOV     DPH,?V0 + 3
   \   000084   A3           INC     DPTR
   \   000085   A3           INC     DPTR
   \   000086   E0           MOVX    A,@DPTR
   \   000087   90....       MOV     DPTR,#myWorkMode
   \   00008A   F0           MOVX    @DPTR,A
   \   00008B   70C2         JNZ     ??zb_ReceiveDataIndication_4
   \   00008D                ; Setup parameters for call to function osal_stop_timerEx
   \   00008D   7A02         MOV     R2,#0x2
   \   00008F   7B00         MOV     R3,#0x0
   \   000091   90....       MOV     DPTR,#sapi_TaskID
   \   000094   E0           MOVX    A,@DPTR
   \   000095   F9           MOV     R1,A
   \   000096   12....       LCALL   ??osal_stop_timerEx?relay
   \   000099   80B7         SJMP    ??CrossCallReturnLabel_1
   \                     ??zb_ReceiveDataIndication_7:
   \   00009B   7401         MOV     A,#0x1
   \   00009D   85..82       MOV     DPL,?XSP + 0
   \   0000A0   85..83       MOV     DPH,?XSP + 1
   \   0000A3   F0           MOVX    @DPTR,A
   \   0000A4                ; Setup parameters for call to function zb_SendDataRequest
   \   0000A4   75..00       MOV     ?V0 + 2,#0x0
   \                     ??zb_ReceiveDataIndication_8:
   \   0000A7   78..         MOV     R0,#?V0 + 2
   \   0000A9   12....       LCALL   ?PUSH_XSTACK_I_ONE
   \   0000AC   75..10       MOV     ?V0 + 2,#0x10
   \   0000AF   78..         MOV     R0,#?V0 + 2
   \   0000B1   12....       LCALL   ?PUSH_XSTACK_I_ONE
   \   0000B4   75..00       MOV     ?V0 + 2,#0x0
   \   0000B7   78..         MOV     R0,#?V0 + 2
   \   0000B9   12....       LCALL   ?PUSH_XSTACK_I_ONE
   \   0000BC   7403         MOV     A,#0x3
   \   0000BE   12....       LCALL   ?XSTACK_DISP0_8
   \   0000C1   8582..       MOV     ?V0 + 2,DPL
   \   0000C4   8583..       MOV     ?V0 + 3,DPH
   \   0000C7   78..         MOV     R0,#?V0 + 2
   \   0000C9   12....       LCALL   ?PUSH_XSTACK_I_TWO
   \   0000CC   7901         MOV     R1,#0x1
   \   0000CE   7C02         MOV     R4,#0x2
   \   0000D0   02....       LJMP    ??zb_ReceiveDataIndication_9 & 0xFFFF
    361              }
    362              dat[0] = 0;
   \                     ??zb_ReceiveDataIndication_5:
   \   0000D3   E4           CLR     A
   \   0000D4   85..82       MOV     DPL,?XSP + 0
   \   0000D7   85..83       MOV     DPH,?XSP + 1
   \   0000DA   F0           MOVX    @DPTR,A
    363              zb_SendDataRequest( source, ID_CMD_WRITE_RES, 1, dat, 0, AF_ACK_REQUEST, 0 );
   \   0000DB                ; Setup parameters for call to function zb_SendDataRequest
   \   0000DB   F5..         MOV     ?V0 + 2,A
   \   0000DD   80C8         SJMP    ??zb_ReceiveDataIndication_8
    364              break;
    365            case ID_CMD_READ_REQ:
    366              for (i=0; i<len; i+=2) {
   \                     ??zb_ReceiveDataIndication_1:
   \   0000DF   7E00         MOV     R6,#0x0
   \   0000E1   7F00         MOV     R7,#0x0
   \   0000E3   800E         SJMP    ??zb_ReceiveDataIndication_10
    367                pid = pData[i]<<8 | pData[i+1];
    368                dat[rlen++] = pData[i];
    369                dat[rlen++] = pData[i+1];
    370                ret = paramRead(pid, dat+rlen);
    371                if (ret <= 0) {
    372                  dat[0] = 1;
    373                  zb_SendDataRequest( source, ID_CMD_READ_RES, 1, dat, 0, AF_ACK_REQUEST, 0 );
    374                  return;
    375                }
    376                rlen += ret;
   \                     ??zb_ReceiveDataIndication_11:
   \   0000E5   E8           MOV     A,R0
   \   0000E6   25..         ADD     A,?V0 + 6
   \   0000E8   F5..         MOV     ?V0 + 6,A
   \   0000EA   EE           MOV     A,R6
   \   0000EB   2402         ADD     A,#0x2
   \   0000ED   0E           INC     R6
   \   0000EE   0E           INC     R6
   \   0000EF   EF           MOV     A,R7
   \   0000F0   3400         ADDC    A,#0x0
   \   0000F2   FF           MOV     R7,A
   \                     ??zb_ReceiveDataIndication_10:
   \   0000F3   C3           CLR     C
   \   0000F4   EE           MOV     A,R6
   \   0000F5   95..         SUBB    A,?V0 + 4
   \   0000F7   EF           MOV     A,R7
   \   0000F8   95..         SUBB    A,?V0 + 5
   \   0000FA   4003         JC      $+5
   \   0000FC   02....       LJMP    ??zb_ReceiveDataIndication_12 & 0xFFFF
   \   0000FF   E5..         MOV     A,?V0 + 2
   \   000101   2E           ADD     A,R6
   \   000102   F8           MOV     R0,A
   \   000103   E5..         MOV     A,?V0 + 3
   \   000105   3F           ADDC    A,R7
   \   000106   F9           MOV     R1,A
   \   000107   E8           MOV     A,R0
   \   000108   FC           MOV     R4,A
   \   000109   E9           MOV     A,R1
   \   00010A   FD           MOV     R5,A
   \   00010B   8C82         MOV     DPL,R4
   \   00010D   8D83         MOV     DPH,R5
   \   00010F   A3           INC     DPTR
   \   000110   A882         MOV     R0,DPL
   \   000112   A983         MOV     R1,DPH
   \   000114   8C82         MOV     DPL,R4
   \   000116   8D83         MOV     DPH,R5
   \   000118   E0           MOVX    A,@DPTR
   \   000119   FB           MOV     R3,A
   \   00011A   8882         MOV     DPL,R0
   \   00011C   8983         MOV     DPH,R1
   \   00011E   E0           MOVX    A,@DPTR
   \   00011F   FA           MOV     R2,A
   \   000120   12....       LCALL   ?Subroutine2 & 0xFFFF
   \                     ??CrossCallReturnLabel_2:
   \   000123   EB           MOV     A,R3
   \   000124   F0           MOVX    @DPTR,A
   \   000125   05..         INC     ?V0 + 6
   \   000127   8882         MOV     DPL,R0
   \   000129   8983         MOV     DPH,R1
   \   00012B   E0           MOVX    A,@DPTR
   \   00012C   C0E0         PUSH    A
   \   00012E   12....       LCALL   ?Subroutine2 & 0xFFFF
   \                     ??CrossCallReturnLabel_3:
   \   000131   D0E0         POP     A
   \   000133   F0           MOVX    @DPTR,A
   \   000134   05..         INC     ?V0 + 6
   \   000136                ; Setup parameters for call to function paramRead
   \   000136   85....       MOV     ?V0 + 8,?V0 + 6
   \   000139   85..82       MOV     DPL,?XSP + 0
   \   00013C   85..83       MOV     DPH,?XSP + 1
   \   00013F   E582         MOV     A,DPL
   \   000141   25..         ADD     A,?V0 + 8
   \   000143   FC           MOV     R4,A
   \   000144   E583         MOV     A,DPH
   \   000146   3400         ADDC    A,#0x0
   \   000148   FD           MOV     R5,A
   \   000149   12....       LCALL   ??paramRead?relay
   \   00014C   8A..         MOV     ?V0 + 8,R2
   \   00014E   A8..         MOV     R0,?V0 + 8
   \   000150   C3           CLR     C
   \   000151   E8           MOV     A,R0
   \   000152   9401         SUBB    A,#0x1
   \   000154   EB           MOV     A,R3
   \   000155   9400         SUBB    A,#0x0
   \   000157   A2D2         MOV     C,0xD0 /* PSW */.2
   \   000159   65D0         XRL     A,PSW
   \   00015B   33           RLC     A
   \   00015C   5087         JNC     ??zb_ReceiveDataIndication_11
   \   00015E   7401         MOV     A,#0x1
   \   000160   85..82       MOV     DPL,?XSP + 0
   \   000163   85..83       MOV     DPH,?XSP + 1
   \   000166   F0           MOVX    @DPTR,A
   \   000167                ; Setup parameters for call to function zb_SendDataRequest
   \   000167   75..00       MOV     ?V0 + 2,#0x0
   \   00016A   78..         MOV     R0,#?V0 + 2
   \   00016C   12....       LCALL   ?PUSH_XSTACK_I_ONE
   \   00016F   75..10       MOV     ?V0 + 2,#0x10
   \   000172   78..         MOV     R0,#?V0 + 2
   \   000174   12....       LCALL   ?PUSH_XSTACK_I_ONE
   \   000177   75..00       MOV     ?V0 + 2,#0x0
   \   00017A   78..         MOV     R0,#?V0 + 2
   \   00017C   12....       LCALL   ?PUSH_XSTACK_I_ONE
   \   00017F   7403         MOV     A,#0x3
   \   000181   12....       LCALL   ?XSTACK_DISP0_8
   \   000184   8582..       MOV     ?V0 + 2,DPL
   \   000187   8583..       MOV     ?V0 + 3,DPH
   \   00018A   78..         MOV     R0,#?V0 + 2
   \   00018C   12....       LCALL   ?PUSH_XSTACK_I_TWO
   \   00018F   7901         MOV     R1,#0x1
   \   000191   8031         SJMP    ??zb_ReceiveDataIndication_13
    377              }
    378              dat[0] = 0;
   \                     ??zb_ReceiveDataIndication_12:
   \   000193   E4           CLR     A
   \   000194   85..82       MOV     DPL,?XSP + 0
   \   000197   85..83       MOV     DPH,?XSP + 1
   \   00019A   F0           MOVX    @DPTR,A
    379              zb_SendDataRequest( source, ID_CMD_READ_RES, rlen, dat, 0, AF_ACK_REQUEST, 0 );
   \   00019B                ; Setup parameters for call to function zb_SendDataRequest
   \   00019B   F5..         MOV     ?V0 + 2,A
   \   00019D   78..         MOV     R0,#?V0 + 2
   \   00019F   12....       LCALL   ?PUSH_XSTACK_I_ONE
   \   0001A2   75..10       MOV     ?V0 + 2,#0x10
   \   0001A5   78..         MOV     R0,#?V0 + 2
   \   0001A7   12....       LCALL   ?PUSH_XSTACK_I_ONE
   \   0001AA   75..00       MOV     ?V0 + 2,#0x0
   \   0001AD   78..         MOV     R0,#?V0 + 2
   \   0001AF   12....       LCALL   ?PUSH_XSTACK_I_ONE
   \   0001B2   7403         MOV     A,#0x3
   \   0001B4   12....       LCALL   ?XSTACK_DISP0_8
   \   0001B7   8582..       MOV     ?V0 + 2,DPL
   \   0001BA   8583..       MOV     ?V0 + 3,DPH
   \   0001BD   78..         MOV     R0,#?V0 + 2
   \   0001BF   12....       LCALL   ?PUSH_XSTACK_I_TWO
   \   0001C2   A9..         MOV     R1,?V0 + 6
   \                     ??zb_ReceiveDataIndication_13:
   \   0001C4   7C01         MOV     R4,#0x1
   \                     ??zb_ReceiveDataIndication_9:
   \   0001C6   7D80         MOV     R5,#-0x80
   \   0001C8   AA..         MOV     R2,?V0 + 0
   \   0001CA   AB..         MOV     R3,?V0 + 1
   \   0001CC   12....       LCALL   ??zb_SendDataRequest?relay
   \   0001CF   7405         MOV     A,#0x5
   \   0001D1   12....       LCALL   ?DEALLOC_XSTACK8
    380              break;
    381            }
    382          }
   \                     ??zb_ReceiveDataIndication_0:
   \   0001D4   7440         MOV     A,#0x40
   \   0001D6   12....       LCALL   ?DEALLOC_XSTACK8
   \   0001D9   7F0A         MOV     R7,#0xa
   \   0001DB   02....       LJMP    ?BANKED_LEAVE_XDATA

   \                                 In  segment BANKED_CODE, align 1, keep-with-next
   \                     ?Subroutine2:
   \   000000   85....       MOV     ?V0 + 8,?V0 + 6
   \   000003   85..82       MOV     DPL,?XSP + 0
   \   000006   85..83       MOV     DPH,?XSP + 1
   \   000009   E582         MOV     A,DPL
   \   00000B   25..         ADD     A,?V0 + 8
   \   00000D   F582         MOV     DPL,A
   \   00000F   E583         MOV     A,DPH
   \   000011   3400         ADDC    A,#0x0
   \   000013   F583         MOV     DPH,A
   \   000015   22           RET
    383          
    384          
    385          
    386          
    387          static int paramWrite(uint16 pid, byte *dat)
    388          {
    389            int len = 0;
    390            switch (pid) {
    391            case 0x0601:
    392              myWorkMode = dat[0]; 
    393              len = 1;
    394              
    395              if (myWorkMode) {
    396                osal_start_timerEx( sapi_TaskID, MY_REPORT_DISTANCE_EVT, myWorkMode*1000);  
    397              } else {
    398                osal_stop_timerEx( sapi_TaskID, MY_REPORT_DISTANCE_EVT );
    399              }
    400              break;
    401            }
    402            return len;
    403          }
    404          

   \                                 In  segment BANKED_CODE, align 1, keep-with-next
    405          static int paramRead(uint16 pid, byte *dat)
   \                     paramRead:
    406          {
   \   000000   74F6         MOV     A,#-0xa
   \   000002   12....       LCALL   ?BANKED_ENTER_XDATA
   \   000005                ; Saved register size: 10
   \   000005                ; Auto size: 0
   \   000005   EC           MOV     A,R4
   \   000006   FE           MOV     R6,A
   \   000007   ED           MOV     A,R5
   \   000008   FF           MOV     R7,A
    407            int len = 0;
   \   000009   7C00         MOV     R4,#0x0
    408            switch (pid) {
   \   00000B   8A..         MOV     ?V0 + 0,R2
   \   00000D   8B..         MOV     ?V0 + 1,R3
   \   00000F   78..         MOV     R0,#?V0 + 0
   \   000011   12....       LCALL   ?US_SWITCH_SPARSE
   \                     `?<Jumptable for paramRead>_0`:
   \   000014   0000         DW        0
   \   000016   0900         DW        9
   \   000018   0100         DW        1
   \   00001A   ....         DW        ??paramRead_0
   \   00001C   0200         DW        2
   \   00001E   ....         DW        ??paramRead_1
   \   000020   0300         DW        3
   \   000022   ....         DW        ??paramRead_2
   \   000024   0400         DW        4
   \   000026   ....         DW        ??paramRead_3
   \   000028   0500         DW        5
   \   00002A   ....         DW        ??paramRead_4
   \   00002C   1400         DW        20
   \   00002E   ....         DW        ??paramRead_5
   \   000030   1500         DW        21
   \   000032   ....         DW        ??paramRead_6
   \   000034   0106         DW        1537
   \   000036   ....         DW        ??paramRead_7
   \   000038   0206         DW        1538
   \   00003A   ....         DW        ??paramRead_8
   \   00003C   ....         DW        ??paramRead_9
    409            case 0x0001:
    410              dat[0] = 0x11; dat[1] = 0x33;
   \                     ??paramRead_0:
   \   00003E   7411         MOV     A,#0x11
   \   000040   8E82         MOV     DPL,R6
   \   000042   8F83         MOV     DPH,R7
   \   000044   F0           MOVX    @DPTR,A
   \   000045   7433         MOV     A,#0x33
   \                     ??paramRead_10:
   \   000047   A3           INC     DPTR
   \   000048   F0           MOVX    @DPTR,A
    411              len = 2;
   \   000049   0C           INC     R4
   \                     ??paramRead_11:
   \   00004A   0C           INC     R4
   \   00004B   8068         SJMP    ??paramRead_9
    412              break;
    413            case 0x0002:
    414              dat[0] = 0x22; dat[1] = 0x44;
   \                     ??paramRead_1:
   \   00004D   7422         MOV     A,#0x22
   \   00004F   8E82         MOV     DPL,R6
   \   000051   8F83         MOV     DPH,R7
   \   000053   F0           MOVX    @DPTR,A
   \   000054   7444         MOV     A,#0x44
   \   000056   80EF         SJMP    ??paramRead_10
    415              len = 2;
    416              break;
    417            case 0x0003:
    418              dat[0] = 0x00; dat[1] = 0x01;
   \                     ??paramRead_2:
   \   000058   E4           CLR     A
   \   000059   8E82         MOV     DPL,R6
   \   00005B   8F83         MOV     DPH,R7
   \   00005D   F0           MOVX    @DPTR,A
   \   00005E   7401         MOV     A,#0x1
   \   000060   80E5         SJMP    ??paramRead_10
    419              len = 2;
    420              break;
    421            case 0x0004:
    422              dat[0] = dat[1] = dat[2] = dat[3] = dat[4] = dat[5] = 1;
   \                     ??paramRead_3:
   \   000062   7401         MOV     A,#0x1
   \   000064   8E82         MOV     DPL,R6
   \   000066   8F83         MOV     DPH,R7
   \   000068   A3           INC     DPTR
   \   000069   A3           INC     DPTR
   \   00006A   A3           INC     DPTR
   \   00006B   A3           INC     DPTR
   \   00006C   12....       LCALL   ?Subroutine3 & 0xFFFF
   \                     ??CrossCallReturnLabel_4:
   \   00006F   12....       LCALL   ?Subroutine3 & 0xFFFF
   \                     ??CrossCallReturnLabel_5:
   \   000072   12....       LCALL   ??Subroutine5_0 & 0xFFFF
   \                     ??CrossCallReturnLabel_6:
   \   000075   12....       LCALL   ?Subroutine4 & 0xFFFF
   \                     ??CrossCallReturnLabel_7:
   \   000078   F0           MOVX    @DPTR,A
   \   000079   8E82         MOV     DPL,R6
   \   00007B   8F83         MOV     DPH,R7
   \   00007D   F0           MOVX    @DPTR,A
    423              len = 6;
   \   00007E   7C06         MOV     R4,#0x6
   \   000080   8033         SJMP    ??paramRead_9
    424              break;
    425            case 0x0005:
    426              dat[0] = DEV_ID_SENDISTENCE;
   \                     ??paramRead_4:
   \   000082   7406         MOV     A,#0x6
   \                     ??paramRead_12:
   \   000084   8E82         MOV     DPL,R6
   \   000086   8F83         MOV     DPH,R7
   \   000088   F0           MOVX    @DPTR,A
    427              len = 1;
   \   000089   80BF         SJMP    ??paramRead_11
    428              break;
    429          
    430            /* -----------  网络参数 ------------------- */  
    431            case 0x0014: //mac地址
    432               /*osal_nv_read( ZCD_NV_EXTADDR, 0, Z_EXTADDR_LEN, pBuf ); rm by liren */
    433              ZMacGetReq( ZMacExtAddr, dat ); // add by liren
   \                     ??paramRead_5:
   \   00008B                ; Setup parameters for call to function ZMacGetReq
   \   00008B   EE           MOV     A,R6
   \   00008C   FA           MOV     R2,A
   \   00008D   EF           MOV     A,R7
   \   00008E   FB           MOV     R3,A
   \   00008F   79E2         MOV     R1,#-0x1e
   \   000091   12....       LCALL   ??ZMacGetReq?relay
    434              // Outgoing extended address needs to be reversed
    435              MT_ReverseBytes( dat, Z_EXTADDR_LEN );
   \   000094                ; Setup parameters for call to function MT_ReverseBytes
   \   000094   7908         MOV     R1,#0x8
   \   000096   EE           MOV     A,R6
   \   000097   FA           MOV     R2,A
   \   000098   EF           MOV     A,R7
   \   000099   FB           MOV     R3,A
   \   00009A   12....       LCALL   ??MT_ReverseBytes?relay
    436              len = Z_EXTADDR_LEN;
   \   00009D   7C08         MOV     R4,#0x8
   \   00009F   8014         SJMP    ??paramRead_9
    437              break;
    438            case 0x0015:
    439            {
    440                uint8 assocCnt = 0;
    441                uint16 *assocList;
    442                int i;
    443          #if defined(RTR_NWK) && !defined( NONWK )
    444              assocList = AssocMakeList( &assocCnt );
    445          #else
    446              assocCnt = 0;
    447              assocList = NULL;
    448          #endif
    449              dat[0] = assocCnt;
   \                     ??paramRead_6:
   \   0000A1   E4           CLR     A
   \   0000A2   80E0         SJMP    ??paramRead_12
    450              for (i=0; i<assocCnt&&i<16; i++) {
    451                dat[1+2*i] = HI_UINT16(assocList[i]);
    452                dat[1+2*i+1] = LO_UINT16(assocList[i]);
    453              }
    454              len = 1 + 2 * assocCnt;
    455              break;
    456            }
    457            /* --------------------------------------------------------*/
    458            case 0x0601:
    459              dat[0] = myWorkMode; 
   \                     ??paramRead_7:
   \   0000A4   90....       MOV     DPTR,#myWorkMode
   \   0000A7   E0           MOVX    A,@DPTR
   \   0000A8   80DA         SJMP    ??paramRead_12
    460              len = 1;
    461              break;
    462            case 0x0602:
    463              dat[0] = srf05Distance();
   \                     ??paramRead_8:
   \   0000AA                ; Setup parameters for call to function srf05Distance
   \   0000AA   12....       LCALL   ??srf05Distance?relay
   \   0000AD   EA           MOV     A,R2
   \   0000AE   8E82         MOV     DPL,R6
   \   0000B0   8F83         MOV     DPH,R7
   \   0000B2   F0           MOVX    @DPTR,A
    464              len = 1;
   \   0000B3   7C01         MOV     R4,#0x1
    465              break;
    466            }
    467            return len;
   \                     ??paramRead_9:
   \   0000B5   EC           MOV     A,R4
   \   0000B6   FA           MOV     R2,A
   \   0000B7   7B00         MOV     R3,#0x0
   \   0000B9   02....       LJMP    ?Subroutine0 & 0xFFFF
    468          }

   \                                 In  segment BANKED_CODE, align 1, keep-with-next
   \                     ?Subroutine3:
   \   000000   12....       LCALL   ?Subroutine4 & 0xFFFF
   \                     ??CrossCallReturnLabel_8:
   \   000003   A3           INC     DPTR
   \   000004   A3           INC     DPTR
   \   000005   22           RET

   \                                 In  segment BANKED_CODE, align 1, keep-with-next
   \                     ?Subroutine4:
   \   000000   A3           INC     DPTR
   \   000001                REQUIRE ??Subroutine5_0
   \   000001                ; // Fall through to label ??Subroutine5_0

   \                                 In  segment BANKED_CODE, align 1, keep-with-next
   \                     ??Subroutine5_0:
   \   000000   F0           MOVX    @DPTR,A
   \   000001   8E82         MOV     DPL,R6
   \   000003   8F83         MOV     DPH,R7
   \   000005   A3           INC     DPTR
   \   000006   22           RET

   \                                 In  segment XDATA_ID, align 1, keep-with-next
   \                     `?<Initializer for myStartRetryDelay>`:
   \   000000   1027         DW 10000

   \                                 In  segment BANK_RELAYS, align 1
   \                     ??zb_HandleOsalEvent?relay:
   \   000000   12....       LCALL   ?BDISPATCH
   \   000003   ......       DC24    zb_HandleOsalEvent

   \                                 In  segment BANK_RELAYS, align 1
   \                     ??zb_HandleKeys?relay:
   \   000000   12....       LCALL   ?BDISPATCH
   \   000003   ......       DC24    zb_HandleKeys

   \                                 In  segment BANK_RELAYS, align 1
   \                     ??zb_StartConfirm?relay:
   \   000000   12....       LCALL   ?BDISPATCH
   \   000003   ......       DC24    zb_StartConfirm

   \                                 In  segment BANK_RELAYS, align 1
   \                     ??zb_SendDataConfirm?relay:
   \   000000   12....       LCALL   ?BDISPATCH
   \   000003   ......       DC24    zb_SendDataConfirm

   \                                 In  segment BANK_RELAYS, align 1
   \                     ??zb_BindConfirm?relay:
   \   000000   12....       LCALL   ?BDISPATCH
   \   000003   ......       DC24    zb_BindConfirm

   \                                 In  segment BANK_RELAYS, align 1
   \                     ??zb_AllowBindConfirm?relay:
   \   000000   12....       LCALL   ?BDISPATCH
   \   000003   ......       DC24    zb_AllowBindConfirm

   \                                 In  segment BANK_RELAYS, align 1
   \                     ??zb_FindDeviceConfirm?relay:
   \   000000   12....       LCALL   ?BDISPATCH
   \   000003   ......       DC24    zb_FindDeviceConfirm

   \                                 In  segment BANK_RELAYS, align 1
   \                     ??zb_HanderMsg?relay:
   \   000000   12....       LCALL   ?BDISPATCH
   \   000003   ......       DC24    zb_HanderMsg

   \                                 In  segment BANK_RELAYS, align 1
   \                     ??zb_ReceiveDataIndication?relay:
   \   000000   12....       LCALL   ?BDISPATCH
   \   000003   ......       DC24    zb_ReceiveDataIndication

   \                                 In  segment BANK_RELAYS, align 1
   \                     ??paramRead?relay:
   \   000000   12....       LCALL   ?BDISPATCH
   \   000003   ......       DC24    paramRead

   Maximum stack usage in bytes:

     Function                   ISTACK PSTACK XSTACK
     --------                   ------ ------ ------
     paramRead                      1      0     92
       -> ZMacGetReq                0      0     20
       -> MT_ReverseBytes           0      0     20
       -> srf05Distance             0      0     20
     zb_AllowBindConfirm            0      0      0
     zb_BindConfirm                 0      0      0
     zb_FindDeviceConfirm           0      0      0
     zb_HanderMsg                   0      0      0
     zb_HandleKeys                  0      0      0
     zb_HandleOsalEvent             1      0     21
       -> zb_ReadConfiguration      0      0     32
       -> zb_WriteConfiguration     0      0     32
       -> zb_ReadConfiguration      0      0     32
       -> zb_WriteConfiguration     0      0     32
       -> srf05Init                 0      0     32
       -> zb_StartRequest           0      0     32
       -> HalLedSet                 0      0     32
       -> srf05Distance             0      0     32
       -> zb_SendDataRequest        0      0     42
       -> osal_start_timerEx        0      0     32
     zb_ReceiveDataIndication       1      0     91
       -> HalLedSet                 0      0    164
       -> HalLedSet                 0      0    164
       -> osal_start_timerEx        0      0    164
       -> osal_stop_timerEx         0      0    164
       -> zb_SendDataRequest        0      0    174
       -> zb_SendDataRequest        0      0    174
       -> paramRead                 0      0    164
       -> zb_SendDataRequest        0      0    174
       -> zb_SendDataRequest        0      0    174
     zb_SendDataConfirm             0      0      0
     zb_StartConfirm                0      0      9
       -> osal_start_timerEx        0      0     18


   Segment part sizes:

     Function/Label                       Bytes
     --------------                       -----
     myAppState                              1
     myStartRetryDelay                       2
     myWorkMode                              1
     zb_InCmdList                            4
     zb_OutCmdList                           6
     zb_SimpleDesc                          12
     zb_HandleOsalEvent                    225
     ?Subroutine0                            5
     ?Subroutine1                           27
     zb_HandleKeys                           3
     zb_StartConfirm                        41
     zb_SendDataConfirm                      3
     zb_BindConfirm                          3
     zb_AllowBindConfirm                     3
     zb_FindDeviceConfirm                    3
     zb_HanderMsg                            3
     zb_ReceiveDataIndication              478
     ?Subroutine2                           22
     paramRead                             188
     ?Subroutine3                            6
     ?Subroutine4                            1
     ??Subroutine5_0                         7
     ?<Initializer for myStartRetryDelay>    2
     ??zb_HandleOsalEvent?relay              6
     ??zb_HandleKeys?relay                   6
     ??zb_StartConfirm?relay                 6
     ??zb_SendDataConfirm?relay              6
     ??zb_BindConfirm?relay                  6
     ??zb_AllowBindConfirm?relay             6
     ??zb_FindDeviceConfirm?relay            6
     ??zb_HanderMsg?relay                    6
     ??zb_ReceiveDataIndication?relay        6
     ??paramRead?relay                       6

 
 1 018 bytes in segment BANKED_CODE
    60 bytes in segment BANK_RELAYS
     2 bytes in segment XDATA_I
     2 bytes in segment XDATA_ID
    22 bytes in segment XDATA_ROM_C
     2 bytes in segment XDATA_Z
 
 1 080 bytes of CODE  memory
    22 bytes of CONST memory
     4 bytes of XDATA memory

Errors: none
Warnings: 2
