///////////////////////////////////////////////////////////////////////////////
//                                                                            /
// IAR C/C++ Compiler V7.60.1.40026 for 8051            09/Jan/2012  13:49:05 /
// Copyright (C) 2004-2010 IAR Systems AB.                                    /
//                                                                            /
//    Core               =  plain                                             /
//    Code model         =  banked                                            /
//    Data model         =  large                                             /
//    Calling convention =  xdata reentrant                                   /
//    Constant location  =  data_rom                                          /
//    Dptr setup         =  1,16                                              /
//    Source file        =  F:\Zigbee节点控制程序\Projects\zstack\Samples\Sim /
//                          pleApp\Source\SimpleACC.c                         /
//    Command line       =  -f F:\Zigbee节点控制程序\Projects\zstack\Samples\ /
//                          SimpleApp\CC2530DB\..\..\..\Tools\CC2530DB\f8wCoo /
//                          rd.cfg (-DCPU32MHZ -DROOT=__near_func             /
//                          -DMAC_CFG_APP_PENDING_QUEUE=TRUE                  /
//                          -DMAC_CFG_TX_DATA_MAX=5 -DMAC_CFG_TX_MAX=8        /
//                          -DMAC_CFG_RX_MAX=5 -DZDO_COORDINATOR -DRTR_NWK)   /
//                          -f F:\Zigbee节点控制程序\Projects\zstack\Samples\ /
//                          SimpleApp\CC2530DB\..\..\..\Tools\CC2530DB\f8wCon /
//                          fig.cfg (-DZIGBEEPRO -DSECURE=0                   /
//                          -DZG_SECURE_DYNAMIC=0 -DREFLECTOR                 /
//                          -DDEFAULT_CHANLIST=0x00000800                     /
//                          -DZDAPP_CONFIG_PAN_ID=0xFFFF                      /
//                          -DNWK_START_DELAY=100 -DEXTENDED_JOINING_RANDOM_M /
//                          ASK=0x007F -DBEACON_REQUEST_DELAY=100             /
//                          -DBEACON_REQ_DELAY_MASK=0x00FF                    /
//                          -DLINK_STATUS_JITTER_MASK=0x007F                  /
//                          -DROUTE_EXPIRY_TIME=30 -DAPSC_ACK_WAIT_DURATION_P /
//                          OLLED=3000 -DNWK_INDIRECT_MSG_TIMEOUT=7           /
//                          -DMAX_RREQ_ENTRIES=8 -DAPSC_MAX_FRAME_RETRIES=3   /
//                          -DNWK_MAX_DATA_RETRIES=2                          /
//                          -DMAX_POLL_FAILURE_RETRIES=2 -DMAX_BCAST=9        /
//                          -DAPS_MAX_GROUPS=16 -DMAX_RTG_ENTRIES=40          /
//                          -DNWK_MAX_BINDING_ENTRIES=4                       /
//                          -DMAX_BINDING_CLUSTER_IDS=4                       /
//                          "-DDEFAULT_KEY={0x01, 0x03, 0x05, 0x07, 0x09,     /
//                          0x0B, 0x0D, 0x0F, 0x00, 0x02, 0x04, 0x06, 0x08,   /
//                          0x0A, 0x0C, 0x0D}" -DMAC_MAX_FRAME_SIZE=116       /
//                          -DZDNWKMGR_MIN_TRANSMISSIONS=20 "-DCONST=const    /
//                          __code" -DGENERIC=__generic                       /
//                          -DRFD_RCVC_ALWAYS_ON=FALSE -DPOLL_RATE=1000       /
//                          -DQUEUED_POLL_RATE=100 -DRESPONSE_POLL_RATE=100)  /
//                          -DREJOIN_POLL_RATE=440 F:\Zigbee节点控制程序\Proj /
//                          ects\zstack\Samples\SimpleApp\Source\SimpleACC.c  /
//                          -D HOLD_AUTO_START -D BUILD_ALL_DEVICES -D        /
//                          REFLECTOR -D NV_INIT -D xNV_RESTORE -D ZTOOL_P1   /
//                          -D MT_TASK -D MT_APP_FUNC -D MT_SYS_FUNC -D       /
//                          MT_UTIL_FUNC -D xMT_SAPI_FUNC -D                  /
//                          xMT_SAPI_CB_FUNC -D xMT_ZDO_FUNC -D               /
//                          xMT_ZDO_CB_FUNC -lC F:\Zigbee节点控制程序\Project /
//                          s\zstack\Samples\SimpleApp\CC2530DB\SimpleLight2\ /
//                          List\ -lA F:\Zigbee节点控制程序\Projects\zstack\S /
//                          amples\SimpleApp\CC2530DB\SimpleLight2\List\      /
//                          --diag_suppress Pe001,Pa010 -o                    /
//                          F:\Zigbee节点控制程序\Projects\zstack\Samples\Sim /
//                          pleApp\CC2530DB\SimpleLight2\Obj\ -e              /
//                          --require_prototypes --no_code_motion --debug     /
//                          --core=plain --dptr=16,1 --data_model=large       /
//                          --code_model=banked --calling_convention=xdata_re /
//                          entrant --place_constants=data_rom                /
//                          --nr_virtual_regs 16 -I                           /
//                          F:\Zigbee节点控制程序\Projects\zstack\Samples\Sim /
//                          pleApp\CC2530DB\ -I F:\Zigbee节点控制程序\Project /
//                          s\zstack\Samples\SimpleApp\CC2530DB\..\Source\    /
//                          -I F:\Zigbee节点控制程序\Projects\zstack\Samples\ /
//                          SimpleApp\CC2530DB\..\..\..\ZMain\TI2530DB\ -I    /
//                          F:\Zigbee节点控制程序\Projects\zstack\Samples\Sim /
//                          pleApp\CC2530DB\..\..\..\..\..\Components\hal\inc /
//                          lude\ -I F:\Zigbee节点控制程序\Projects\zstack\Sa /
//                          mples\SimpleApp\CC2530DB\..\..\..\..\..\Component /
//                          s\hal\target\CC2530EB\ -I                         /
//                          F:\Zigbee节点控制程序\Projects\zstack\Samples\Sim /
//                          pleApp\CC2530DB\..\..\..\..\..\Components\mac\inc /
//                          lude\ -I F:\Zigbee节点控制程序\Projects\zstack\Sa /
//                          mples\SimpleApp\CC2530DB\..\..\..\..\..\Component /
//                          s\mac\high_level\ -I F:\Zigbee节点控制程序\Projec /
//                          ts\zstack\Samples\SimpleApp\CC2530DB\..\..\..\..\ /
//                          ..\Components\mac\low_level\srf04\ -I             /
//                          F:\Zigbee节点控制程序\Projects\zstack\Samples\Sim /
//                          pleApp\CC2530DB\..\..\..\..\..\Components\mac\low /
//                          _level\srf04\single_chip\ -I                      /
//                          F:\Zigbee节点控制程序\Projects\zstack\Samples\Sim /
//                          pleApp\CC2530DB\..\..\..\..\..\Components\mt\ -I  /
//                          F:\Zigbee节点控制程序\Projects\zstack\Samples\Sim /
//                          pleApp\CC2530DB\..\..\..\..\..\Components\osal\in /
//                          clude\ -I F:\Zigbee节点控制程序\Projects\zstack\S /
//                          amples\SimpleApp\CC2530DB\..\..\..\..\..\Componen /
//                          ts\osal\mcu\ccsoc\ -I F:\Zigbee节点控制程序\Proje /
//                          cts\zstack\Samples\SimpleApp\CC2530DB\..\..\..\.. /
//                          \..\Components\services\saddr\ -I                 /
//                          F:\Zigbee节点控制程序\Projects\zstack\Samples\Sim /
//                          pleApp\CC2530DB\..\..\..\..\..\Components\service /
//                          s\sdata\ -I F:\Zigbee节点控制程序\Projects\zstack /
//                          \Samples\SimpleApp\CC2530DB\..\..\..\..\..\Compon /
//                          ents\stack\af\ -I F:\Zigbee节点控制程序\Projects\ /
//                          zstack\Samples\SimpleApp\CC2530DB\..\..\..\..\..\ /
//                          Components\stack\nwk\ -I                          /
//                          F:\Zigbee节点控制程序\Projects\zstack\Samples\Sim /
//                          pleApp\CC2530DB\..\..\..\..\..\Components\stack\s /
//                          api\ -I F:\Zigbee节点控制程序\Projects\zstack\Sam /
//                          ples\SimpleApp\CC2530DB\..\..\..\..\..\Components /
//                          \stack\sec\ -I F:\Zigbee节点控制程序\Projects\zst /
//                          ack\Samples\SimpleApp\CC2530DB\..\..\..\..\..\Com /
//                          ponents\stack\sys\ -I F:\Zigbee节点控制程序\Proje /
//                          cts\zstack\Samples\SimpleApp\CC2530DB\..\..\..\.. /
//                          \..\Components\stack\zdo\ -I                      /
//                          F:\Zigbee节点控制程序\Projects\zstack\Samples\Sim /
//                          pleApp\CC2530DB\..\..\..\..\..\Components\zmac\   /
//                          -I F:\Zigbee节点控制程序\Projects\zstack\Samples\ /
//                          SimpleApp\CC2530DB\..\..\..\..\..\Components\zmac /
//                          \f8w\ -I "D:\Program Files\IAR Systems\Embedded   /
//                          Workbench 5.4\8051\INC\" -I "D:\Program           /
//                          Files\IAR Systems\Embedded Workbench              /
//                          5.4\8051\INC\CLIB\" -Ohz                          /
//    List file          =  F:\Zigbee节点控制程序\Projects\zstack\Samples\Sim /
//                          pleApp\CC2530DB\SimpleLight2\List\SimpleACC.s51   /
//                                                                            /
//                                                                            /
///////////////////////////////////////////////////////////////////////////////

        NAME SimpleACC

        RTMODEL "__calling_convention", "xdata_reentrant"
        RTMODEL "__code_model", "banked"
        RTMODEL "__core", "plain"
        RTMODEL "__data_model", "large"
        RTMODEL "__dptr_size", "16"
        RTMODEL "__extended_stack", "disabled"
        RTMODEL "__location_for_constants", "data"
        RTMODEL "__number_of_dptrs", "1"
        RTMODEL "__rt_version", "1"

        RSEG DOVERLAY:DATA:NOROOT(0)
        RSEG IOVERLAY:IDATA:NOROOT(0)
        RSEG ISTACK:IDATA:NOROOT(0)
        RSEG PSTACK:XDATA:NOROOT(0)
        RSEG XSTACK:XDATA:NOROOT(0)

        EXTERN ?ALLOC_XSTACK8
        EXTERN ?BANKED_ENTER_XDATA
        EXTERN ?BANKED_LEAVE_XDATA
        EXTERN ?BDISPATCH
        EXTERN ?BRET
        EXTERN ?DEALLOC_XSTACK8
        EXTERN ?PUSH_XSTACK_I_ONE
        EXTERN ?PUSH_XSTACK_I_TWO
        EXTERN ?US_SWITCH_DENSE
        EXTERN ?US_SWITCH_SPARSE
        EXTERN ?V0
        EXTERN ?XSP
        EXTERN ?XSTACK_DISP0_8
        EXTERN __INIT_XDATA_I
        EXTERN __INIT_XDATA_Z

        PUBLIC ??datxor?relay
        FUNCTION ??datxor?relay,0203H
        FUNCTION ??paramRead?relay,0203H
        PUBLIC ??rfid_commands?relay
        FUNCTION ??rfid_commands?relay,0203H
        PUBLIC ??rfid_id?relay
        FUNCTION ??rfid_id?relay,0203H
        PUBLIC ??rfid_uart_init?relay
        FUNCTION ??rfid_uart_init?relay,0203H
        PUBLIC ??rfid_uart_recv?relay
        FUNCTION ??rfid_uart_recv?relay,0203H
        PUBLIC ??rfid_uart_send?relay
        FUNCTION ??rfid_uart_send?relay,0203H
        PUBLIC ??zb_AllowBindConfirm?relay
        FUNCTION ??zb_AllowBindConfirm?relay,0203H
        PUBLIC ??zb_BindConfirm?relay
        FUNCTION ??zb_BindConfirm?relay,0203H
        PUBLIC ??zb_FindDeviceConfirm?relay
        FUNCTION ??zb_FindDeviceConfirm?relay,0203H
        PUBLIC ??zb_HanderMsg?relay
        FUNCTION ??zb_HanderMsg?relay,0203H
        PUBLIC ??zb_HandleKeys?relay
        FUNCTION ??zb_HandleKeys?relay,0203H
        PUBLIC ??zb_HandleOsalEvent?relay
        FUNCTION ??zb_HandleOsalEvent?relay,0203H
        PUBLIC ??zb_ReceiveDataIndication?relay
        FUNCTION ??zb_ReceiveDataIndication?relay,0203H
        PUBLIC ??zb_SendDataConfirm?relay
        FUNCTION ??zb_SendDataConfirm?relay,0203H
        PUBLIC ??zb_StartConfirm?relay
        FUNCTION ??zb_StartConfirm?relay,0203H
        PUBWEAK P0SEL
        PUBWEAK PERCFG
        PUBWEAK U0BAUD
        PUBWEAK U0CSR
        PUBWEAK U0DBUF
        PUBWEAK U0GCR
        PUBWEAK U0UCR
        PUBWEAK _A_IRCON2
        PUBWEAK _A_TCON
        PUBLIC cmd
        PUBLIC dat
        PUBLIC datxor
        FUNCTION datxor,0203H
        ARGFRAME XSTACK, 9, STACK
        ARGFRAME IOVERLAY, 0, STATIC
        ARGFRAME DOVERLAY, 0, STATIC
        LOCFRAME XSTACK, 10, STACK
        FUNCTION paramRead,0a1203H
        ARGFRAME XSTACK, 82, STACK
        ARGFRAME IOVERLAY, 0, STATIC
        ARGFRAME DOVERLAY, 0, STATIC
        LOCFRAME ISTACK, 1, STACK
        LOCFRAME XSTACK, 13, STACK
        PUBLIC rfid_commands
        FUNCTION rfid_commands,021203H
        ARGFRAME XSTACK, 9, STACK
        ARGFRAME IOVERLAY, 0, STATIC
        ARGFRAME DOVERLAY, 0, STATIC
        LOCFRAME XSTACK, 12, STACK
        PUBLIC rfid_id
        FUNCTION rfid_id,021203H
        ARGFRAME XSTACK, 18, STACK
        ARGFRAME IOVERLAY, 0, STATIC
        ARGFRAME DOVERLAY, 0, STATIC
        LOCFRAME ISTACK, 1, STACK
        LOCFRAME XSTACK, 9, STACK
        PUBLIC rfid_uart_init
        FUNCTION rfid_uart_init,0203H
        ARGFRAME XSTACK, 18, STACK
        ARGFRAME IOVERLAY, 0, STATIC
        ARGFRAME DOVERLAY, 0, STATIC
        PUBLIC rfid_uart_recv
        FUNCTION rfid_uart_recv,0203H
        ARGFRAME XSTACK, 9, STACK
        ARGFRAME IOVERLAY, 0, STATIC
        ARGFRAME DOVERLAY, 0, STATIC
        LOCFRAME ISTACK, 2, STACK
        PUBLIC rfid_uart_send
        FUNCTION rfid_uart_send,0203H
        ARGFRAME XSTACK, 12, STACK
        ARGFRAME IOVERLAY, 0, STATIC
        ARGFRAME DOVERLAY, 0, STATIC
        PUBLIC zb_AllowBindConfirm
        FUNCTION zb_AllowBindConfirm,0203H
        ARGFRAME XSTACK, 0, STACK
        PUBLIC zb_BindConfirm
        FUNCTION zb_BindConfirm,0203H
        ARGFRAME XSTACK, 0, STACK
        PUBLIC zb_FindDeviceConfirm
        FUNCTION zb_FindDeviceConfirm,0203H
        ARGFRAME XSTACK, 0, STACK
        PUBLIC zb_HanderMsg
        FUNCTION zb_HanderMsg,0203H
        ARGFRAME XSTACK, 0, STACK
        PUBLIC zb_HandleKeys
        FUNCTION zb_HandleKeys,0203H
        ARGFRAME XSTACK, 0, STACK
        PUBLIC zb_HandleOsalEvent
        FUNCTION zb_HandleOsalEvent,021203H
        ARGFRAME XSTACK, 0, STACK
        LOCFRAME ISTACK, 1, STACK
        LOCFRAME XSTACK, 23, STACK
        PUBLIC zb_InCmdList
        PUBLIC zb_OutCmdList
        PUBLIC zb_ReceiveDataIndication
        FUNCTION zb_ReceiveDataIndication,0a1203H
        ARGFRAME XSTACK, 4, STACK
        LOCFRAME ISTACK, 1, STACK
        LOCFRAME XSTACK, 87, STACK
        PUBLIC zb_SendDataConfirm
        FUNCTION zb_SendDataConfirm,0203H
        ARGFRAME XSTACK, 0, STACK
        PUBLIC zb_SimpleDesc
        PUBLIC zb_StartConfirm
        FUNCTION zb_StartConfirm,021203H
        ARGFRAME XSTACK, 0, STACK
        LOCFRAME XSTACK, 9, STACK
        
        CFI Names cfiNames0
        CFI StackFrame CFA_SP SP IDATA
        CFI StackFrame CFA_PSP16 PSP16 XDATA
        CFI StackFrame CFA_XSP16 XSP16 XDATA
        CFI StaticOverlayFrame CFA_IOVERLAY IOVERLAY
        CFI StaticOverlayFrame CFA_DOVERLAY DOVERLAY
        CFI Resource `PSW.CY`:1, `B.BR0`:1, `B.BR1`:1, `B.BR2`:1, `B.BR3`:1
        CFI Resource `B.BR4`:1, `B.BR5`:1, `B.BR6`:1, `B.BR7`:1, `VB.BR8`:1
        CFI Resource `VB.BR9`:1, `VB.BR10`:1, `VB.BR11`:1, `VB.BR12`:1
        CFI Resource `VB.BR13`:1, `VB.BR14`:1, `VB.BR15`:1, VB:8, B:8, A:8
        CFI Resource PSW:8, DPL0:8, DPH0:8, R0:8, R1:8, R2:8, R3:8, R4:8, R5:8
        CFI Resource R6:8, R7:8, V0:8, V1:8, V2:8, V3:8, V4:8, V5:8, V6:8, V7:8
        CFI Resource V8:8, V9:8, V10:8, V11:8, V12:8, V13:8, V14:8, V15:8, SP:8
        CFI Resource PSPH:8, PSPL:8, PSP16:16, XSPH:8, XSPL:8, XSP16:16
        CFI VirtualResource ?RET:24
        CFI Resource ?BRET_EXT:8
        CFI VirtualResource ?RET_HIGH:8, ?RET_LOW:8
        CFI ResourceParts PSP16 PSPH, PSPL
        CFI ResourceParts XSP16 XSPH, XSPL
        CFI ResourceParts ?RET ?BRET_EXT, ?RET_HIGH, ?RET_LOW
        CFI EndNames cfiNames0
        
        CFI Common cfiCommon0 Using cfiNames0
        CFI CodeAlign 1
        CFI DataAlign -1
        CFI ReturnAddress ?RET CODE
        CFI CFA_DOVERLAY Used
        CFI CFA_IOVERLAY Used
        CFI CFA_SP SP+-3
        CFI CFA_PSP16 PSP16+0
        CFI CFA_XSP16 XSP16+0
        CFI `PSW.CY` SameValue
        CFI `B.BR0` SameValue
        CFI `B.BR1` SameValue
        CFI `B.BR2` SameValue
        CFI `B.BR3` SameValue
        CFI `B.BR4` SameValue
        CFI `B.BR5` SameValue
        CFI `B.BR6` SameValue
        CFI `B.BR7` SameValue
        CFI `VB.BR8` SameValue
        CFI `VB.BR9` SameValue
        CFI `VB.BR10` SameValue
        CFI `VB.BR11` SameValue
        CFI `VB.BR12` SameValue
        CFI `VB.BR13` SameValue
        CFI `VB.BR14` SameValue
        CFI `VB.BR15` SameValue
        CFI VB SameValue
        CFI B Undefined
        CFI A Undefined
        CFI PSW SameValue
        CFI DPL0 SameValue
        CFI DPH0 SameValue
        CFI R0 Undefined
        CFI R1 Undefined
        CFI R2 Undefined
        CFI R3 Undefined
        CFI R4 Undefined
        CFI R5 Undefined
        CFI R6 SameValue
        CFI R7 SameValue
        CFI V0 SameValue
        CFI V1 SameValue
        CFI V2 SameValue
        CFI V3 SameValue
        CFI V4 SameValue
        CFI V5 SameValue
        CFI V6 SameValue
        CFI V7 SameValue
        CFI V8 SameValue
        CFI V9 SameValue
        CFI V10 SameValue
        CFI V11 SameValue
        CFI V12 SameValue
        CFI V13 SameValue
        CFI V14 SameValue
        CFI V15 SameValue
        CFI PSPH Undefined
        CFI PSPL Undefined
        CFI XSPH Undefined
        CFI XSPL Undefined
        CFI ?RET Concat
        CFI ?BRET_EXT Frame(CFA_SP, 3)
        CFI ?RET_HIGH Frame(CFA_SP, 2)
        CFI ?RET_LOW Frame(CFA_SP, 1)
        CFI EndCommon cfiCommon0
        
        
        CFI Common cfiCommon1 Using cfiNames0
        CFI CodeAlign 1
        CFI DataAlign -1
        CFI ReturnAddress ?RET CODE
        CFI CFA_DOVERLAY Used
        CFI CFA_IOVERLAY Used
        CFI CFA_SP SP+-2
        CFI CFA_PSP16 PSP16+0
        CFI CFA_XSP16 XSP16+0
        CFI `PSW.CY` SameValue
        CFI `B.BR0` SameValue
        CFI `B.BR1` SameValue
        CFI `B.BR2` SameValue
        CFI `B.BR3` SameValue
        CFI `B.BR4` SameValue
        CFI `B.BR5` SameValue
        CFI `B.BR6` SameValue
        CFI `B.BR7` SameValue
        CFI `VB.BR8` SameValue
        CFI `VB.BR9` SameValue
        CFI `VB.BR10` SameValue
        CFI `VB.BR11` SameValue
        CFI `VB.BR12` SameValue
        CFI `VB.BR13` SameValue
        CFI `VB.BR14` SameValue
        CFI `VB.BR15` SameValue
        CFI VB SameValue
        CFI B SameValue
        CFI A SameValue
        CFI PSW SameValue
        CFI DPL0 SameValue
        CFI DPH0 SameValue
        CFI R0 SameValue
        CFI R1 SameValue
        CFI R2 SameValue
        CFI R3 SameValue
        CFI R4 SameValue
        CFI R5 SameValue
        CFI R6 SameValue
        CFI R7 SameValue
        CFI V0 SameValue
        CFI V1 SameValue
        CFI V2 SameValue
        CFI V3 SameValue
        CFI V4 SameValue
        CFI V5 SameValue
        CFI V6 SameValue
        CFI V7 SameValue
        CFI V8 SameValue
        CFI V9 SameValue
        CFI V10 SameValue
        CFI V11 SameValue
        CFI V12 SameValue
        CFI V13 SameValue
        CFI V14 SameValue
        CFI V15 SameValue
        CFI PSPH Undefined
        CFI PSPL Undefined
        CFI XSPH Undefined
        CFI XSPL Undefined
        CFI ?RET Concat
        CFI ?BRET_EXT SameValue
        CFI ?RET_HIGH Frame(CFA_SP, 2)
        CFI ?RET_LOW Frame(CFA_SP, 1)
        CFI EndCommon cfiCommon1
        
zb_ReadConfiguration SYMBOL "zb_ReadConfiguration"
zb_WriteConfiguration SYMBOL "zb_WriteConfiguration"
osal_start_timerEx  SYMBOL "osal_start_timerEx"
zb_StartRequest     SYMBOL "zb_StartRequest"
HalLedSet           SYMBOL "HalLedSet"
zb_SendDataRequest  SYMBOL "zb_SendDataRequest"
ZMacGetReq          SYMBOL "ZMacGetReq"
MT_ReverseBytes     SYMBOL "MT_ReverseBytes"
AssocMakeList       SYMBOL "AssocMakeList"
??AssocMakeList?relay SYMBOL "?relay", AssocMakeList
??HalLedSet?relay   SYMBOL "?relay", HalLedSet
??MT_ReverseBytes?relay SYMBOL "?relay", MT_ReverseBytes
??ZMacGetReq?relay  SYMBOL "?relay", ZMacGetReq
??osal_start_timerEx?relay SYMBOL "?relay", osal_start_timerEx
??zb_ReadConfiguration?relay SYMBOL "?relay", zb_ReadConfiguration
??zb_SendDataRequest?relay SYMBOL "?relay", zb_SendDataRequest
??zb_StartRequest?relay SYMBOL "?relay", zb_StartRequest
??zb_WriteConfiguration?relay SYMBOL "?relay", zb_WriteConfiguration
datxor              SYMBOL "datxor"
??datxor?relay      SYMBOL "?relay", datxor
rfid_commands       SYMBOL "rfid_commands"
??rfid_commands?relay SYMBOL "?relay", rfid_commands
rfid_id             SYMBOL "rfid_id"
??rfid_id?relay     SYMBOL "?relay", rfid_id
rfid_uart_init      SYMBOL "rfid_uart_init"
??rfid_uart_init?relay SYMBOL "?relay", rfid_uart_init
rfid_uart_recv      SYMBOL "rfid_uart_recv"
??rfid_uart_recv?relay SYMBOL "?relay", rfid_uart_recv
rfid_uart_send      SYMBOL "rfid_uart_send"
??rfid_uart_send?relay SYMBOL "?relay", rfid_uart_send
zb_AllowBindConfirm SYMBOL "zb_AllowBindConfirm"
??zb_AllowBindConfirm?relay SYMBOL "?relay", zb_AllowBindConfirm
zb_BindConfirm      SYMBOL "zb_BindConfirm"
??zb_BindConfirm?relay SYMBOL "?relay", zb_BindConfirm
zb_FindDeviceConfirm SYMBOL "zb_FindDeviceConfirm"
??zb_FindDeviceConfirm?relay SYMBOL "?relay", zb_FindDeviceConfirm
zb_HanderMsg        SYMBOL "zb_HanderMsg"
??zb_HanderMsg?relay SYMBOL "?relay", zb_HanderMsg
zb_HandleKeys       SYMBOL "zb_HandleKeys"
??zb_HandleKeys?relay SYMBOL "?relay", zb_HandleKeys
zb_HandleOsalEvent  SYMBOL "zb_HandleOsalEvent"
??zb_HandleOsalEvent?relay SYMBOL "?relay", zb_HandleOsalEvent
zb_ReceiveDataIndication SYMBOL "zb_ReceiveDataIndication"
??zb_ReceiveDataIndication?relay SYMBOL "?relay", zb_ReceiveDataIndication
zb_SendDataConfirm  SYMBOL "zb_SendDataConfirm"
??zb_SendDataConfirm?relay SYMBOL "?relay", zb_SendDataConfirm
zb_StartConfirm     SYMBOL "zb_StartConfirm"
??zb_StartConfirm?relay SYMBOL "?relay", zb_StartConfirm

        EXTERN zb_ReadConfiguration
        FUNCTION zb_ReadConfiguration,0202H
        ARGFRAME ISTACK, 0, STACK
        ARGFRAME PSTACK, 0, STACK
        ARGFRAME XSTACK, 18, STACK
        ARGFRAME IOVERLAY, 0, STATIC
        ARGFRAME DOVERLAY, 0, STATIC
        EXTERN zb_WriteConfiguration
        FUNCTION zb_WriteConfiguration,0202H
        ARGFRAME ISTACK, 0, STACK
        ARGFRAME PSTACK, 0, STACK
        ARGFRAME XSTACK, 18, STACK
        ARGFRAME IOVERLAY, 0, STATIC
        ARGFRAME DOVERLAY, 0, STATIC
        EXTERN osal_start_timerEx
        FUNCTION osal_start_timerEx,0202H
        ARGFRAME ISTACK, 0, STACK
        ARGFRAME PSTACK, 0, STACK
        ARGFRAME XSTACK, 18, STACK
        ARGFRAME IOVERLAY, 0, STATIC
        ARGFRAME DOVERLAY, 0, STATIC
        EXTERN zb_StartRequest
        FUNCTION zb_StartRequest,0202H
        ARGFRAME ISTACK, 0, STACK
        ARGFRAME PSTACK, 0, STACK
        ARGFRAME XSTACK, 18, STACK
        ARGFRAME IOVERLAY, 0, STATIC
        ARGFRAME DOVERLAY, 0, STATIC
        EXTERN HalLedSet
        FUNCTION HalLedSet,0202H
        ARGFRAME ISTACK, 0, STACK
        ARGFRAME PSTACK, 0, STACK
        ARGFRAME XSTACK, 82, STACK
        ARGFRAME IOVERLAY, 0, STATIC
        ARGFRAME DOVERLAY, 0, STATIC
        EXTERN zb_SendDataRequest
        FUNCTION zb_SendDataRequest,0202H
        ARGFRAME ISTACK, 0, STACK
        ARGFRAME PSTACK, 0, STACK
        ARGFRAME XSTACK, 87, STACK
        ARGFRAME IOVERLAY, 0, STATIC
        ARGFRAME DOVERLAY, 0, STATIC
        EXTERN ZMacGetReq
        FUNCTION ZMacGetReq,0202H
        ARGFRAME ISTACK, 0, STACK
        ARGFRAME PSTACK, 0, STACK
        ARGFRAME XSTACK, 13, STACK
        ARGFRAME IOVERLAY, 0, STATIC
        ARGFRAME DOVERLAY, 0, STATIC
        EXTERN MT_ReverseBytes
        FUNCTION MT_ReverseBytes,0202H
        ARGFRAME ISTACK, 0, STACK
        ARGFRAME PSTACK, 0, STACK
        ARGFRAME XSTACK, 13, STACK
        ARGFRAME IOVERLAY, 0, STATIC
        ARGFRAME DOVERLAY, 0, STATIC
        EXTERN AssocMakeList
        FUNCTION AssocMakeList,0202H
        ARGFRAME ISTACK, 0, STACK
        ARGFRAME PSTACK, 0, STACK
        ARGFRAME XSTACK, 13, STACK
        ARGFRAME IOVERLAY, 0, STATIC
        ARGFRAME DOVERLAY, 0, STATIC
        EXTERN ??AssocMakeList?relay
        FUNCTION ??AssocMakeList?relay,00H
        EXTERN ??HalLedSet?relay
        FUNCTION ??HalLedSet?relay,00H
        EXTERN ??MT_ReverseBytes?relay
        FUNCTION ??MT_ReverseBytes?relay,00H
        EXTERN ??ZMacGetReq?relay
        FUNCTION ??ZMacGetReq?relay,00H
        EXTERN ??osal_start_timerEx?relay
        FUNCTION ??osal_start_timerEx?relay,00H
        EXTERN ??zb_ReadConfiguration?relay
        FUNCTION ??zb_ReadConfiguration?relay,00H
        EXTERN ??zb_SendDataRequest?relay
        FUNCTION ??zb_SendDataRequest?relay,00H
        EXTERN ??zb_StartRequest?relay
        FUNCTION ??zb_StartRequest?relay,00H
        EXTERN ??zb_WriteConfiguration?relay
        FUNCTION ??zb_WriteConfiguration?relay,00H
        EXTERN sapi_TaskID

// F:\Zigbee节点控制程序\Projects\zstack\Samples\SimpleApp\Source\SimpleACC.c
//    1 /**************************************************************************************************
//    2   Filename:       SimpleSwitch.c
//    3   Revised:        $Date: 2007-10-27 17:16:54 -0700 (Sat, 27 Oct 2007) $
//    4   Revision:       $Revision: 15793 $
//    5 
//    6   Description:    Sample application for a simple light switch utilizing the Simple API.
//    7 
//    8  
//    9   Copyright 2007 Texas Instruments Incorporated. All rights reserved.
//   10 
//   11   IMPORTANT: Your use of this Software is limited to those specific rights
//   12   granted under the terms of a software license agreement between the user
//   13   who downloaded the software, his/her employer (which must be your employer)
//   14   and Texas Instruments Incorporated (the "License").  You may not use this
//   15   Software unless you agree to abide by the terms of the License. The License
//   16   limits your use, and you acknowledge, that the Software may not be modified,
//   17   copied or distributed unless embedded on a Texas Instruments microcontroller
//   18   or used solely and exclusively in conjunction with a Texas Instruments radio
//   19   frequency transceiver, which is integrated into your product.  Other than for
//   20   the foregoing purpose, you may not use, reproduce, copy, prepare derivative
//   21   works of, modify, distribute, perform, display or sell this Software and/or
//   22   its documentation for any purpose.
//   23 
//   24   YOU FURTHER ACKNOWLEDGE AND AGREE THAT THE SOFTWARE AND DOCUMENTATION ARE
//   25   PROVIDED AS IS?WITHOUT WARRANTY OF ANY KIND, EITHER EXPRESS OR IMPLIED, 
//   26   INCLUDING WITHOUT LIMITATION, ANY WARRANTY OF MERCHANTABILITY, TITLE, 
//   27   NON-INFRINGEMENT AND FITNESS FOR A PARTICULAR PURPOSE. IN NO EVENT SHALL
//   28   TEXAS INSTRUMENTS OR ITS LICENSORS BE LIABLE OR OBLIGATED UNDER CONTRACT,
//   29   NEGLIGENCE, STRICT LIABILITY, CONTRIBUTION, BREACH OF WARRANTY, OR OTHER
//   30   LEGAL EQUITABLE THEORY ANY DIRECT OR INDIRECT DAMAGES OR EXPENSES
//   31   INCLUDING BUT NOT LIMITED TO ANY INCIDENTAL, SPECIAL, INDIRECT, PUNITIVE
//   32   OR CONSEQUENTIAL DAMAGES, LOST PROFITS OR LOST DATA, COST OF PROCUREMENT
//   33   OF SUBSTITUTE GOODS, TECHNOLOGY, SERVICES, OR ANY CLAIMS BY THIRD PARTIES
//   34   (INCLUDING BUT NOT LIMITED TO ANY DEFENSE THEREOF), OR OTHER SIMILAR COSTS.
//   35 
//   36   Should you have any questions regarding your right to use this Software,
//   37   contact Texas Instruments Incorporated at www.TI.com. 
//   38 **************************************************************************************************/
//   39 
//   40 /******************************************************************************
//   41  * INCLUDES
//   42  */
//   43 #include "ZComDef.h"
//   44 #include "OSAL.h"
//   45 #include "sapi.h"
//   46 #include "hal_key.h"

        ASEGN SFR_AN:DATA:NOROOT,086H
// unsigned char volatile __sfr U0CSR
U0CSR:
        DS 1

        ASEGN SFR_AN:DATA:NOROOT,088H
// union <unnamed> volatile __sfr _A_TCON
_A_TCON:
        DS 1

        ASEGN SFR_AN:DATA:NOROOT,0c1H
// unsigned char volatile __sfr U0DBUF
U0DBUF:
        DS 1

        ASEGN SFR_AN:DATA:NOROOT,0c2H
// unsigned char volatile __sfr U0BAUD
U0BAUD:
        DS 1

        ASEGN SFR_AN:DATA:NOROOT,0c4H
// unsigned char volatile __sfr U0UCR
U0UCR:
        DS 1

        ASEGN SFR_AN:DATA:NOROOT,0c5H
// unsigned char volatile __sfr U0GCR
U0GCR:
        DS 1

        ASEGN SFR_AN:DATA:NOROOT,0e8H
// union <unnamed> volatile __sfr _A_IRCON2
_A_IRCON2:
        DS 1

        ASEGN SFR_AN:DATA:NOROOT,0f1H
// unsigned char volatile __sfr PERCFG
PERCFG:
        DS 1

        ASEGN SFR_AN:DATA:NOROOT,0f3H
// unsigned char volatile __sfr P0SEL
P0SEL:
        DS 1
//   47 #include "hal_led.h"
//   48 #include "hal_adc.h"
//   49 #include "hal_mcu.h"
//   50 #include "SimpleApp.h"
//   51 
//   52 
//   53 #include "mt.h"
//   54 
//   55 /*********************************************************************
//   56  * CONSTANTS
//   57  */
//   58 
//   59 // Application States
//   60 #define APP_INIT                           0    // Initial state(初始状态)
//   61 #define APP_START                          1    // Sensor has joined network(传感器已加入网络)
//   62 #define APP_BOUND                          2    // Sensor is bound to collector(传感器也绑定到适配器)
//   63 
//   64 // Application osal event identifiers
//   65 // Bit mask of events ( from 0x0000 to 0x00FF )
//   66 #define MY_START_EVT                0x0001      //自定义的开始事件
//   67 #define MY_REPORT_EVT               0x0002     //自定义的上报事件
//   68 
//   69 /*********************************************************************
//   70  * TYPEDEFS
//   71  */
//   72 
//   73 /*********************************************************************
//   74  * LOCAL VARIABLES
//   75  */
//   76 

        RSEG XDATA_Z:XDATA:NOROOT(0)
//   77 static uint8 myAppState = APP_INIT;           //myAppState:自定义的APP状态
myAppState:
        DS 1
        REQUIRE __INIT_XDATA_Z
//   78 

        RSEG XDATA_I:XDATA:NOROOT(0)
        DATA
//   79 static uint16 myStartRetryDelay = 10000;      // milliseconds
myStartRetryDelay:
        DS 2
        REQUIRE `?<Initializer for myStartRetryDelay>`
        REQUIRE __INIT_XDATA_I
//   80 

        RSEG XDATA_I:XDATA:NOROOT(0)
        DATA
//   81 static uint16 myCheckCardDelay = 250;         //milliseconds
myCheckCardDelay:
        DS 2
        REQUIRE `?<Initializer for myCheckCardDelay>`
        REQUIRE __INIT_XDATA_I
//   82 

        RSEG XDATA_I:XDATA:NOROOT(0)
        DATA
//   83 static uint8 rfidOn = 1;                     //RFID的开启和关闭
rfidOn:
        DS 1
        REQUIRE `?<Initializer for rfidOn>`
        REQUIRE __INIT_XDATA_I
//   84 /*********************************************************************
//   85  * GLOBAL VARIABLES
//   86  */
//   87 
//   88 // Inputs and Outputs for Switch device
//   89 #define NUM_IN_CMD_SENSOR                 2       //传感器模式:输入模式
//   90 #define NUM_OUT_CMD_SENSOR                3       //传感器模式:输出模式
//   91 
//   92 

        RSEG XDATA_ROM_C:CONST:REORDER:NOROOT(0)
        DATA
//   93 const cId_t zb_InCmdList[NUM_IN_CMD_SENSOR] =
zb_InCmdList:
        DW 1, 2
//   94 {
//   95   ID_CMD_READ_REQ,                               //读中断
//   96   ID_CMD_WRITE_REQ,                              //写中断
//   97 };

        RSEG XDATA_ROM_C:CONST:REORDER:NOROOT(0)
        DATA
//   98 const cId_t zb_OutCmdList[NUM_OUT_CMD_SENSOR] =
zb_OutCmdList:
        DW 32769, 32770, 3
//   99 {
//  100     ID_CMD_READ_RES,
//  101     ID_CMD_WRITE_RES,
//  102     ID_CMD_REPORT,
//  103 };
//  104 
//  105 
//  106 
//  107 
//  108 
//  109 // Define SimpleDescriptor for Switch device

        RSEG XDATA_ROM_C:CONST:REORDER:NOROOT(0)
        DATA
//  110 const SimpleDescriptionFormat_t zb_SimpleDesc =
zb_SimpleDesc:
        DB 2
        DW 3856, 3
        DB 1, 2
        DW zb_InCmdList
        DB 3
        DW zb_OutCmdList
//  111 {
//  112   MY_ENDPOINT_ID,             //  Endpoint
//  113   MY_PROFILE_ID,              //  Profile ID
//  114   DEV_ID_SENSOR,              //  Device ID
//  115   DEVICE_VERSION_SENSOR,      //  Device Version
//  116   0,                          //  Reserved
//  117   NUM_IN_CMD_SENSOR,          //  Number of Input Commands
//  118   (cId_t *) zb_InCmdList,             //  Input Command List
//  119   NUM_OUT_CMD_SENSOR,         //  Number of Output Commands
//  120   (cId_t *) zb_OutCmdList     //  Output Command List
//  121 };
//  122 
//  123 /********************************************************
//  124  *
//  125  */
//  126 void zb_HanderMsg(osal_event_hdr_t *msg);
//  127 
//  128 /*********************************************************************
//  129  * LOCAL FUNCTIONS
//  130  */
//  131 
//  132 
//  133 static int paramWrite(uint16 pid, byte *dat);
//  134 static int paramRead(uint16 pid, byte *dat);
//  135 
//  136 
//  137 void rfid_uart_init(void);
//  138 void rfid_uart_send(unsigned char ch);
//  139 int  rfid_uart_recv(void);
//  140 void rfid_commands(char *cmd, int len);
//  141 char datxor(char *dat, int len);
//  142 int rfid_id(char *id);
//  143 
//  144 /*****************************************************************************
//  145  * @fn          zb_HandleOsalEvent
//  146  *
//  147  * @brief       The zb_HandleOsalEvent function is called by the operating
//  148  *              system when a task event is set
//  149  *
//  150  * @param       event - Bitmask containing the events that have been set
//  151  *
//  152  * @return      none
//  153  */

        RSEG BANKED_CODE:CODE:NOROOT(0)
//  154 void zb_HandleOsalEvent( uint16 event )
zb_HandleOsalEvent:
        CFI Block cfiBlock0 Using cfiCommon0
        CFI Function zb_HandleOsalEvent
//  155 {
        FUNCALL zb_HandleOsalEvent, zb_ReadConfiguration
        LOCFRAME ISTACK, 0, STACK
        LOCFRAME PSTACK, 0, STACK
        LOCFRAME XSTACK, 18, STACK
        LOCFRAME IOVERLAY, 0, STATIC
        LOCFRAME DOVERLAY, 0, STATIC
        ARGFRAME ISTACK, 0, STACK
        ARGFRAME PSTACK, 0, STACK
        ARGFRAME XSTACK, 18, STACK
        ARGFRAME IOVERLAY, 0, STATIC
        ARGFRAME DOVERLAY, 0, STATIC
        FUNCALL zb_HandleOsalEvent, zb_WriteConfiguration
        LOCFRAME ISTACK, 0, STACK
        LOCFRAME PSTACK, 0, STACK
        LOCFRAME XSTACK, 18, STACK
        LOCFRAME IOVERLAY, 0, STATIC
        LOCFRAME DOVERLAY, 0, STATIC
        ARGFRAME ISTACK, 0, STACK
        ARGFRAME PSTACK, 0, STACK
        ARGFRAME XSTACK, 18, STACK
        ARGFRAME IOVERLAY, 0, STATIC
        ARGFRAME DOVERLAY, 0, STATIC
        FUNCALL zb_HandleOsalEvent, zb_ReadConfiguration
        LOCFRAME ISTACK, 0, STACK
        LOCFRAME PSTACK, 0, STACK
        LOCFRAME XSTACK, 18, STACK
        LOCFRAME IOVERLAY, 0, STATIC
        LOCFRAME DOVERLAY, 0, STATIC
        ARGFRAME ISTACK, 0, STACK
        ARGFRAME PSTACK, 0, STACK
        ARGFRAME XSTACK, 18, STACK
        ARGFRAME IOVERLAY, 0, STATIC
        ARGFRAME DOVERLAY, 0, STATIC
        FUNCALL zb_HandleOsalEvent, zb_WriteConfiguration
        LOCFRAME ISTACK, 0, STACK
        LOCFRAME PSTACK, 0, STACK
        LOCFRAME XSTACK, 18, STACK
        LOCFRAME IOVERLAY, 0, STATIC
        LOCFRAME DOVERLAY, 0, STATIC
        ARGFRAME ISTACK, 0, STACK
        ARGFRAME PSTACK, 0, STACK
        ARGFRAME XSTACK, 18, STACK
        ARGFRAME IOVERLAY, 0, STATIC
        ARGFRAME DOVERLAY, 0, STATIC
        FUNCALL zb_HandleOsalEvent, rfid_uart_init
        LOCFRAME ISTACK, 0, STACK
        LOCFRAME PSTACK, 0, STACK
        LOCFRAME XSTACK, 18, STACK
        LOCFRAME IOVERLAY, 0, STATIC
        LOCFRAME DOVERLAY, 0, STATIC
        ARGFRAME ISTACK, 0, STACK
        ARGFRAME PSTACK, 0, STACK
        ARGFRAME XSTACK, 18, STACK
        ARGFRAME IOVERLAY, 0, STATIC
        ARGFRAME DOVERLAY, 0, STATIC
        FUNCALL zb_HandleOsalEvent, osal_start_timerEx
        LOCFRAME ISTACK, 0, STACK
        LOCFRAME PSTACK, 0, STACK
        LOCFRAME XSTACK, 18, STACK
        LOCFRAME IOVERLAY, 0, STATIC
        LOCFRAME DOVERLAY, 0, STATIC
        ARGFRAME ISTACK, 0, STACK
        ARGFRAME PSTACK, 0, STACK
        ARGFRAME XSTACK, 18, STACK
        ARGFRAME IOVERLAY, 0, STATIC
        ARGFRAME DOVERLAY, 0, STATIC
        FUNCALL zb_HandleOsalEvent, zb_StartRequest
        LOCFRAME ISTACK, 0, STACK
        LOCFRAME PSTACK, 0, STACK
        LOCFRAME XSTACK, 18, STACK
        LOCFRAME IOVERLAY, 0, STATIC
        LOCFRAME DOVERLAY, 0, STATIC
        ARGFRAME ISTACK, 0, STACK
        ARGFRAME PSTACK, 0, STACK
        ARGFRAME XSTACK, 18, STACK
        ARGFRAME IOVERLAY, 0, STATIC
        ARGFRAME DOVERLAY, 0, STATIC
        FUNCALL zb_HandleOsalEvent, rfid_id
        LOCFRAME ISTACK, 0, STACK
        LOCFRAME PSTACK, 0, STACK
        LOCFRAME XSTACK, 18, STACK
        LOCFRAME IOVERLAY, 0, STATIC
        LOCFRAME DOVERLAY, 0, STATIC
        ARGFRAME ISTACK, 0, STACK
        ARGFRAME PSTACK, 0, STACK
        ARGFRAME XSTACK, 18, STACK
        ARGFRAME IOVERLAY, 0, STATIC
        ARGFRAME DOVERLAY, 0, STATIC
        FUNCALL zb_HandleOsalEvent, HalLedSet
        LOCFRAME ISTACK, 0, STACK
        LOCFRAME PSTACK, 0, STACK
        LOCFRAME XSTACK, 18, STACK
        LOCFRAME IOVERLAY, 0, STATIC
        LOCFRAME DOVERLAY, 0, STATIC
        ARGFRAME ISTACK, 0, STACK
        ARGFRAME PSTACK, 0, STACK
        ARGFRAME XSTACK, 18, STACK
        ARGFRAME IOVERLAY, 0, STATIC
        ARGFRAME DOVERLAY, 0, STATIC
        FUNCALL zb_HandleOsalEvent, zb_SendDataRequest
        LOCFRAME ISTACK, 0, STACK
        LOCFRAME PSTACK, 0, STACK
        LOCFRAME XSTACK, 23, STACK
        LOCFRAME IOVERLAY, 0, STATIC
        LOCFRAME DOVERLAY, 0, STATIC
        ARGFRAME ISTACK, 0, STACK
        ARGFRAME PSTACK, 0, STACK
        ARGFRAME XSTACK, 23, STACK
        ARGFRAME IOVERLAY, 0, STATIC
        ARGFRAME DOVERLAY, 0, STATIC
        FUNCALL zb_HandleOsalEvent, HalLedSet
        LOCFRAME ISTACK, 0, STACK
        LOCFRAME PSTACK, 0, STACK
        LOCFRAME XSTACK, 18, STACK
        LOCFRAME IOVERLAY, 0, STATIC
        LOCFRAME DOVERLAY, 0, STATIC
        ARGFRAME ISTACK, 0, STACK
        ARGFRAME PSTACK, 0, STACK
        ARGFRAME XSTACK, 18, STACK
        ARGFRAME IOVERLAY, 0, STATIC
        ARGFRAME DOVERLAY, 0, STATIC
        FUNCALL zb_HandleOsalEvent, osal_start_timerEx
        LOCFRAME ISTACK, 0, STACK
        LOCFRAME PSTACK, 0, STACK
        LOCFRAME XSTACK, 18, STACK
        LOCFRAME IOVERLAY, 0, STATIC
        LOCFRAME DOVERLAY, 0, STATIC
        ARGFRAME ISTACK, 0, STACK
        ARGFRAME PSTACK, 0, STACK
        ARGFRAME XSTACK, 18, STACK
        ARGFRAME IOVERLAY, 0, STATIC
        ARGFRAME DOVERLAY, 0, STATIC
        MOV     A,#-0xa
        LCALL   ?BANKED_ENTER_XDATA
        CFI DPH0 load(1, XDATA, add(CFA_XSP16, literal(-1)))
        CFI DPL0 load(1, XDATA, add(CFA_XSP16, literal(-2)))
        CFI ?BRET_EXT load(1, XDATA, add(CFA_XSP16, literal(-3)))
        CFI ?RET_HIGH load(1, XDATA, add(CFA_XSP16, literal(-4)))
        CFI ?RET_LOW load(1, XDATA, add(CFA_XSP16, literal(-5)))
        CFI R7 load(1, XDATA, add(CFA_XSP16, literal(-6)))
        CFI V1 load(1, XDATA, add(CFA_XSP16, literal(-7)))
        CFI V0 load(1, XDATA, add(CFA_XSP16, literal(-8)))
        CFI VB load(1, XDATA, add(CFA_XSP16, literal(-9)))
        CFI R6 load(1, XDATA, add(CFA_XSP16, literal(-10)))
        CFI CFA_SP SP+0
        CFI CFA_XSP16 add(XSP16, 10)
        ; Saved register size: 10
        ; Auto size: 8
        MOV     A,#-0x8
        LCALL   ?ALLOC_XSTACK8
        CFI CFA_XSP16 add(XSP16, 18)
        MOV     A,R2
        MOV     R6,A
        MOV     A,R3
        MOV     R7,A
//  156  
//  157    if (event & ZB_ENTRY_EVENT) {
        MOV     A,#0x10
        ANL     A,R7
        MOV     R1,A
        CLR     A
        JNZ     ??zb_HandleOsalEvent_0
        MOV     A,R1
??zb_HandleOsalEvent_0:
        JZ      ??CrossCallReturnLabel_0
//  158         uint8 startOptions;
//  159         uint8 logicalType;
//  160   
//  161         zb_ReadConfiguration( ZCD_NV_LOGICAL_TYPE, sizeof(uint8), &logicalType );
        ; Setup parameters for call to function zb_ReadConfiguration
        MOV     DPL,?XSP + 0
        MOV     DPH,?XSP + 1
        MOV     R4,DPL
        MOV     R5,DPH
        MOV     R2,#0x1
        MOV     R1,#-0x79
        LCALL   ??zb_ReadConfiguration?relay
//  162         if ( logicalType != ZG_DEVICETYPE_ENDDEVICE )
        MOV     DPL,?XSP + 0
        MOV     DPH,?XSP + 1
        MOVX    A,@DPTR
        XRL     A,#0x2
        JZ      ??zb_HandleOsalEvent_1
//  163         //if ( logicalType != ZG_DEVICETYPE_ROUTER )
//  164         //if ( logicalType != ZG_DEVICETYPE_COORDINATOR )
//  165         {
//  166           logicalType = ZG_DEVICETYPE_ENDDEVICE;
        MOV     A,#0x2
        MOVX    @DPTR,A
//  167           //logicalType = ZG_DEVICETYPE_ROUTER;
//  168           //logicalType = ZG_DEVICETYPE_COORDINATOR;
//  169           zb_WriteConfiguration(ZCD_NV_LOGICAL_TYPE, sizeof(uint8), &logicalType);
        ; Setup parameters for call to function zb_WriteConfiguration
        MOV     R4,DPL
        MOV     R5,DPH
        MOV     R2,#0x1
        MOV     R1,#-0x79
        LCALL   ??zb_WriteConfiguration?relay
//  170         }
//  171 
//  172         // Do more configuration if necessary and then restart device with auto-start bit set
//  173         // write endpoint to simple desc...dont pass it in start req..then reset
//  174         zb_ReadConfiguration( ZCD_NV_STARTUP_OPTION, sizeof(uint8), &startOptions );
??zb_HandleOsalEvent_1:
        ; Setup parameters for call to function zb_ReadConfiguration
        MOV     A,#0x1
        LCALL   ?XSTACK_DISP0_8
        MOV     R4,DPL
        MOV     R5,DPH
        MOV     R2,#0x1
        MOV     R1,#0x3
        LCALL   ??zb_ReadConfiguration?relay
//  175         if (startOptions != ZCD_STARTOPT_AUTO_START) {
        MOV     A,#0x1
        LCALL   ?XSTACK_DISP0_8
        MOVX    A,@DPTR
        XRL     A,#0x4
        JZ      ??zb_HandleOsalEvent_2
//  176           startOptions = ZCD_STARTOPT_AUTO_START;
        MOV     A,#0x4
        MOVX    @DPTR,A
//  177           zb_WriteConfiguration( ZCD_NV_STARTUP_OPTION, sizeof(uint8), &startOptions );
        ; Setup parameters for call to function zb_WriteConfiguration
        MOV     R4,DPL
        MOV     R5,DPH
        MOV     R2,#0x1
        MOV     R1,#0x3
        LCALL   ??zb_WriteConfiguration?relay
//  178         } 
//  179         
//  180         rfid_uart_init();
??zb_HandleOsalEvent_2:
        ; Setup parameters for call to function rfid_uart_init
        LCALL   ??rfid_uart_init?relay
//  181         
//  182         osal_start_timerEx( sapi_TaskID, MY_REPORT_EVT, myCheckCardDelay );
        ; Setup parameters for call to function osal_start_timerEx
        LCALL   ?Subroutine3 & 0xFFFF
//  183   }
//  184   
//  185   if ( event & MY_START_EVT )
??CrossCallReturnLabel_0:
        MOV     A,R6
        MOV     C,0xE0 /* A   */.0
        JNC     ??zb_HandleOsalEvent_3
//  186   {  
//  187     zb_StartRequest();
        ; Setup parameters for call to function zb_StartRequest
        LCALL   ??zb_StartRequest?relay
//  188   }
//  189 
//  190   if (event & MY_REPORT_EVT) {
??zb_HandleOsalEvent_3:
        MOV     A,R6
        ANL     A,#0x2
        JNZ     $+5
        LJMP    ??CrossCallReturnLabel_1 & 0xFFFF
//  191 
//  192     if (rfidOn) {
        MOV     DPTR,#rfidOn
        MOVX    A,@DPTR
        JNZ     $+5
        LJMP    ??zb_HandleOsalEvent_4 & 0xFFFF
//  193       static char card = 0;
//  194       static char id[4];
//  195       
//  196       //rfid_uart_init();
//  197       
//  198       if (rfid_id(id)) {
        ; Setup parameters for call to function rfid_id
        MOV     R2,#(??id & 0xff)
        MOV     R3,#((??id >> 8) & 0xff)
        LCALL   ??rfid_id?relay
        MOV     A,R2
        JNZ     ??zb_HandleOsalEvent_5
        MOV     A,R3
??zb_HandleOsalEvent_5:
        MOV     DPTR,#??card
        JNZ     $+5
        LJMP    ??zb_HandleOsalEvent_6 & 0xFFFF
//  199         if (card == 0) {
        MOVX    A,@DPTR
        JZ      $+5
        LJMP    ??zb_HandleOsalEvent_7 & 0xFFFF
//  200           card = 1;
        MOV     A,#0x1
        MOVX    @DPTR,A
//  201           HalLedSet( HAL_LED_1, HAL_LED_MODE_ON );
        ; Setup parameters for call to function HalLedSet
        MOV     R2,A
        MOV     R1,A
        LCALL   ??HalLedSet?relay
//  202           if (myAppState == APP_START) {
        MOV     DPTR,#myAppState
        MOVX    A,@DPTR
        XRL     A,#0x1
        JZ      $+5
        LJMP    ??zb_HandleOsalEvent_7 & 0xFFFF
//  203             unsigned char dat[6];
//  204             dat[0] = 0x08;
        MOV     A,#0x2
        LCALL   ?XSTACK_DISP0_8
        MOV     A,#0x8
        MOVX    @DPTR,A
//  205             dat[1] = 0x10;
        MOV     A,#0x3
        LCALL   ?XSTACK_DISP0_8
        MOV     A,#0x10
        MOVX    @DPTR,A
//  206             dat[2] = id[0];
        MOV     DPTR,#??id
        MOVX    A,@DPTR
        PUSH    A
        CFI CFA_SP SP+-1
        MOV     A,#0x4
        LCALL   ?XSTACK_DISP0_8
        POP     A
        CFI CFA_SP SP+0
        MOVX    @DPTR,A
//  207             dat[3] = id[1];
        MOV     DPTR,#(??id + 1)
        MOVX    A,@DPTR
        PUSH    A
        CFI CFA_SP SP+-1
        MOV     A,#0x5
        LCALL   ?XSTACK_DISP0_8
        POP     A
        CFI CFA_SP SP+0
        MOVX    @DPTR,A
//  208             dat[4] = id[2];
        MOV     DPTR,#(??id + 2)
        MOVX    A,@DPTR
        PUSH    A
        CFI CFA_SP SP+-1
        MOV     A,#0x6
        LCALL   ?XSTACK_DISP0_8
        POP     A
        CFI CFA_SP SP+0
        MOVX    @DPTR,A
//  209             dat[5] = id[3];
        MOV     DPTR,#(??id + 3)
        MOVX    A,@DPTR
        PUSH    A
        CFI CFA_SP SP+-1
        MOV     A,#0x7
        LCALL   ?XSTACK_DISP0_8
        POP     A
        CFI CFA_SP SP+0
        MOVX    @DPTR,A
//  210             /*0：为要上报数据给地址为0的节点*/
//  211             /*ID_CMD_REPORT:为命令事件*/
//  212             /*6：为数据长度*/
//  213             /*dat:为数据*/
//  214             /*0, AF_ACK_REQUEST, 0为默认值*/
//  215             zb_SendDataRequest(0, ID_CMD_REPORT, 6, dat, 0, AF_ACK_REQUEST, 0 );
        ; Setup parameters for call to function zb_SendDataRequest
        MOV     ?V0 + 0,#0x0
        MOV     R0,#?V0 + 0
        LCALL   ?PUSH_XSTACK_I_ONE
        CFI CFA_XSP16 add(XSP16, 19)
        MOV     ?V0 + 0,#0x10
        MOV     R0,#?V0 + 0
        LCALL   ?PUSH_XSTACK_I_ONE
        CFI CFA_XSP16 add(XSP16, 20)
        MOV     ?V0 + 0,#0x0
        MOV     R0,#?V0 + 0
        LCALL   ?PUSH_XSTACK_I_ONE
        CFI CFA_XSP16 add(XSP16, 21)
        MOV     A,#0x5
        LCALL   ?XSTACK_DISP0_8
        MOV     ?V0 + 0,DPL
        MOV     ?V0 + 1,DPH
        MOV     R0,#?V0 + 0
        LCALL   ?PUSH_XSTACK_I_TWO
        CFI CFA_XSP16 add(XSP16, 23)
        MOV     R1,#0x6
        MOV     R4,#0x3
        MOV     R5,#0x0
        MOV     R2,#0x0
        MOV     R3,#0x0
        LCALL   ??zb_SendDataRequest?relay
        MOV     A,#0x5
        LCALL   ?DEALLOC_XSTACK8
        CFI CFA_XSP16 add(XSP16, 18)
//  216           }
//  217         }
//  218         myCheckCardDelay = 1000;
??zb_HandleOsalEvent_7:
        MOV     DPTR,#myCheckCardDelay
        MOV     A,#-0x18
        MOVX    @DPTR,A
        INC     DPTR
        MOV     A,#0x3
        SJMP    ??zb_HandleOsalEvent_8
//  219       } else {
//  220         if (card) {
??zb_HandleOsalEvent_6:
        MOVX    A,@DPTR
        JZ      ??zb_HandleOsalEvent_9
//  221           card = 0;
        CLR     A
        MOVX    @DPTR,A
//  222           HalLedSet( HAL_LED_1, HAL_LED_MODE_OFF );
        ; Setup parameters for call to function HalLedSet
        MOV     R2,A
        MOV     R1,#0x1
        LCALL   ??HalLedSet?relay
//  223         }
//  224         myCheckCardDelay = 250;
??zb_HandleOsalEvent_9:
        MOV     DPTR,#myCheckCardDelay
        MOV     A,#-0x6
        MOVX    @DPTR,A
        INC     DPTR
        CLR     A
??zb_HandleOsalEvent_8:
        MOVX    @DPTR,A
//  225       }
//  226     }   
//  227     osal_start_timerEx( sapi_TaskID, MY_REPORT_EVT, myCheckCardDelay );
??zb_HandleOsalEvent_4:
        ; Setup parameters for call to function osal_start_timerEx
        LCALL   ?Subroutine3 & 0xFFFF
//  228   }
//  229   
//  230   
//  231   
//  232   
//  233   
//  234 }
??CrossCallReturnLabel_1:
        MOV     A,#0x8
        LCALL   ?DEALLOC_XSTACK8
        CFI EndBlock cfiBlock0
        REQUIRE ?Subroutine0
        ; // Fall through to label ?Subroutine0

        RSEG BANKED_CODE:CODE:NOROOT(0)
?Subroutine0:
        CFI Block cfiBlock1 Using cfiCommon0
        CFI NoFunction
        CFI CFA_SP SP+0
        CFI CFA_XSP16 add(XSP16, 10)
        CFI VB load(1, XDATA, add(CFA_XSP16, literal(-9)))
        CFI DPL0 load(1, XDATA, add(CFA_XSP16, literal(-2)))
        CFI DPH0 load(1, XDATA, add(CFA_XSP16, literal(-1)))
        CFI R6 load(1, XDATA, add(CFA_XSP16, literal(-10)))
        CFI R7 load(1, XDATA, add(CFA_XSP16, literal(-6)))
        CFI V0 load(1, XDATA, add(CFA_XSP16, literal(-8)))
        CFI V1 load(1, XDATA, add(CFA_XSP16, literal(-7)))
        CFI ?BRET_EXT load(1, XDATA, add(CFA_XSP16, literal(-3)))
        CFI ?RET_HIGH load(1, XDATA, add(CFA_XSP16, literal(-4)))
        CFI ?RET_LOW load(1, XDATA, add(CFA_XSP16, literal(-5)))
        MOV     R7,#0x2
        LJMP    ?BANKED_LEAVE_XDATA
        CFI EndBlock cfiBlock1

        RSEG BANKED_CODE:CODE:NOROOT(0)
?Subroutine3:
        CFI Block cfiCond2 Using cfiCommon0
        CFI NoFunction
        CFI Conditional ??CrossCallReturnLabel_0
        CFI R6 load(1, XDATA, add(CFA_XSP16, literal(-10)))
        CFI VB load(1, XDATA, add(CFA_XSP16, literal(-9)))
        CFI V0 load(1, XDATA, add(CFA_XSP16, literal(-8)))
        CFI V1 load(1, XDATA, add(CFA_XSP16, literal(-7)))
        CFI R7 load(1, XDATA, add(CFA_XSP16, literal(-6)))
        CFI ?RET_LOW load(1, XDATA, add(CFA_XSP16, literal(-5)))
        CFI ?RET_HIGH load(1, XDATA, add(CFA_XSP16, literal(-4)))
        CFI ?BRET_EXT load(1, XDATA, add(CFA_XSP16, literal(-3)))
        CFI DPL0 load(1, XDATA, add(CFA_XSP16, literal(-2)))
        CFI DPH0 load(1, XDATA, add(CFA_XSP16, literal(-1)))
        CFI CFA_SP SP+0
        CFI CFA_XSP16 add(XSP16, 18)
        CFI Block cfiCond3 Using cfiCommon0
        CFI (cfiCond3) NoFunction
        CFI (cfiCond3) Conditional ??CrossCallReturnLabel_1
        CFI (cfiCond3) R6 load(1, XDATA, add(CFA_XSP16, literal(-10)))
        CFI (cfiCond3) VB load(1, XDATA, add(CFA_XSP16, literal(-9)))
        CFI (cfiCond3) V0 load(1, XDATA, add(CFA_XSP16, literal(-8)))
        CFI (cfiCond3) V1 load(1, XDATA, add(CFA_XSP16, literal(-7)))
        CFI (cfiCond3) R7 load(1, XDATA, add(CFA_XSP16, literal(-6)))
        CFI (cfiCond3) ?RET_LOW load(1, XDATA, add(CFA_XSP16, literal(-5)))
        CFI (cfiCond3) ?RET_HIGH load(1, XDATA, add(CFA_XSP16, literal(-4)))
        CFI (cfiCond3) ?BRET_EXT load(1, XDATA, add(CFA_XSP16, literal(-3)))
        CFI (cfiCond3) DPL0 load(1, XDATA, add(CFA_XSP16, literal(-2)))
        CFI (cfiCond3) DPH0 load(1, XDATA, add(CFA_XSP16, literal(-1)))
        CFI (cfiCond3) CFA_SP SP+0
        CFI (cfiCond3) CFA_XSP16 add(XSP16, 18)
        CFI Block cfiPicker4 Using cfiCommon1
        CFI (cfiPicker4) NoFunction
        CFI (cfiPicker4) Picker
        MOV     DPTR,#myCheckCardDelay
        MOVX    A,@DPTR
        MOV     R4,A
        INC     DPTR
        MOVX    A,@DPTR
        MOV     R5,A
        MOV     R2,#0x2
        MOV     R3,#0x0
        MOV     DPTR,#sapi_TaskID
        MOVX    A,@DPTR
        MOV     R1,A
        LCALL   ??osal_start_timerEx?relay
        RET
        CFI EndBlock cfiCond2
        CFI EndBlock cfiCond3
        CFI EndBlock cfiPicker4

        RSEG XDATA_Z:XDATA:NOROOT(0)
??card:
        DS 1
        REQUIRE __INIT_XDATA_Z

        RSEG XDATA_Z:XDATA:NOROOT(0)
??id:
        DS 4
        REQUIRE __INIT_XDATA_Z
//  235 /*********************************************************************
//  236  * @fn      zb_HandleKeys
//  237  *
//  238  * @brief   Handles all key events for this device.
//  239  *
//  240  * @param   shift - true if in shift/alt.
//  241  * @param   keys - bit field for key events. Valid entries:
//  242  *                 EVAL_SW4
//  243  *                 EVAL_SW3
//  244  *                 EVAL_SW2
//  245  *                 EVAL_SW1
//  246  *
//  247  * @return  none
//  248  */

        RSEG BANKED_CODE:CODE:NOROOT(0)
//  249 void zb_HandleKeys( uint8 shift, uint8 keys )
zb_HandleKeys:
        CFI Block cfiBlock5 Using cfiCommon0
        CFI Function zb_HandleKeys
//  250 {
        ; Saved register size: 0
        ; Auto size: 0
//  251  
//  252 }
        LJMP    ?BRET
        CFI EndBlock cfiBlock5
//  253 /******************************************************************************
//  254  * @fn          zb_StartConfirm
//  255  *
//  256  * @brief       The zb_StartConfirm callback is called by the ZigBee stack
//  257  *              after a start request operation completes
//  258  *
//  259  * @param       status - The status of the start operation.  Status of
//  260  *                       ZB_SUCCESS indicates the start operation completed
//  261  *                       successfully.  Else the status is an error code.
//  262  *
//  263  * @return      none
//  264  */

        RSEG BANKED_CODE:CODE:NOROOT(0)
//  265 void zb_StartConfirm( uint8 status )
zb_StartConfirm:
        CFI Block cfiBlock6 Using cfiCommon0
        CFI Function zb_StartConfirm
//  266 {
        FUNCALL zb_StartConfirm, osal_start_timerEx
        LOCFRAME ISTACK, 0, STACK
        LOCFRAME PSTACK, 0, STACK
        LOCFRAME XSTACK, 9, STACK
        LOCFRAME IOVERLAY, 0, STATIC
        LOCFRAME DOVERLAY, 0, STATIC
        ARGFRAME ISTACK, 0, STACK
        ARGFRAME PSTACK, 0, STACK
        ARGFRAME XSTACK, 9, STACK
        ARGFRAME IOVERLAY, 0, STATIC
        ARGFRAME DOVERLAY, 0, STATIC
        MOV     A,#-0x9
        LCALL   ?BANKED_ENTER_XDATA
        CFI DPH0 load(1, XDATA, add(CFA_XSP16, literal(-1)))
        CFI DPL0 load(1, XDATA, add(CFA_XSP16, literal(-2)))
        CFI ?BRET_EXT load(1, XDATA, add(CFA_XSP16, literal(-3)))
        CFI ?RET_HIGH load(1, XDATA, add(CFA_XSP16, literal(-4)))
        CFI ?RET_LOW load(1, XDATA, add(CFA_XSP16, literal(-5)))
        CFI R7 load(1, XDATA, add(CFA_XSP16, literal(-6)))
        CFI V0 load(1, XDATA, add(CFA_XSP16, literal(-7)))
        CFI VB load(1, XDATA, add(CFA_XSP16, literal(-8)))
        CFI R6 load(1, XDATA, add(CFA_XSP16, literal(-9)))
        CFI CFA_SP SP+0
        CFI CFA_XSP16 add(XSP16, 9)
        ; Saved register size: 9
        ; Auto size: 0
        MOV     A,R1
//  267   if ( status == ZB_SUCCESS )
        JNZ     ??zb_StartConfirm_0
//  268   {
//  269     myAppState = APP_START;
        MOV     A,#0x1
        MOV     DPTR,#myAppState
        MOVX    @DPTR,A
        SJMP    ??zb_StartConfirm_1
//  270     // Set event to bind to a collector
//  271     //osal_start_timerEx( sapi_TaskID, MY_FIND_COLLECTOR_EVT, myBindRetryDelay );
//  272   }
//  273   else
//  274   {
//  275     // Try joining again later with a delay
//  276     osal_start_timerEx( sapi_TaskID, MY_START_EVT, myStartRetryDelay );
??zb_StartConfirm_0:
        ; Setup parameters for call to function osal_start_timerEx
        MOV     DPTR,#myStartRetryDelay
        MOVX    A,@DPTR
        MOV     R4,A
        INC     DPTR
        MOVX    A,@DPTR
        MOV     R5,A
        MOV     R2,#0x1
        MOV     R3,#0x0
        MOV     DPTR,#sapi_TaskID
        MOVX    A,@DPTR
        MOV     R1,A
        LCALL   ??osal_start_timerEx?relay
        CFI EndBlock cfiBlock6
//  277   }
//  278 }
??zb_StartConfirm_1:
        REQUIRE ?Subroutine1
        ; // Fall through to label ?Subroutine1

        RSEG BANKED_CODE:CODE:NOROOT(0)
?Subroutine1:
        CFI Block cfiBlock7 Using cfiCommon0
        CFI NoFunction
        CFI CFA_SP SP+0
        CFI CFA_XSP16 add(XSP16, 9)
        CFI VB load(1, XDATA, add(CFA_XSP16, literal(-8)))
        CFI DPL0 load(1, XDATA, add(CFA_XSP16, literal(-2)))
        CFI DPH0 load(1, XDATA, add(CFA_XSP16, literal(-1)))
        CFI R6 load(1, XDATA, add(CFA_XSP16, literal(-9)))
        CFI R7 load(1, XDATA, add(CFA_XSP16, literal(-6)))
        CFI V0 load(1, XDATA, add(CFA_XSP16, literal(-7)))
        CFI ?BRET_EXT load(1, XDATA, add(CFA_XSP16, literal(-3)))
        CFI ?RET_HIGH load(1, XDATA, add(CFA_XSP16, literal(-4)))
        CFI ?RET_LOW load(1, XDATA, add(CFA_XSP16, literal(-5)))
        MOV     R7,#0x1
        LJMP    ?BANKED_LEAVE_XDATA
        CFI EndBlock cfiBlock7
//  279 /******************************************************************************
//  280  * @fn          zb_SendDataConfirm
//  281  *
//  282  * @brief       The zb_SendDataConfirm callback function is called by the
//  283  *              ZigBee after a send data operation completes
//  284  *
//  285  * @param       handle - The handle identifying the data transmission.
//  286  *              status - The status of the operation.
//  287  *
//  288  * @return      none
//  289  */

        RSEG BANKED_CODE:CODE:NOROOT(0)
//  290 void zb_SendDataConfirm( uint8 handle, uint8 status )
zb_SendDataConfirm:
        CFI Block cfiBlock8 Using cfiCommon0
        CFI Function zb_SendDataConfirm
//  291 {
        ; Saved register size: 0
        ; Auto size: 0
//  292   if ( status != ZSuccess )
//  293   {
//  294     // Remove bindings to the existing collector
//  295   }
//  296   else
//  297   {
//  298     // send data ??
//  299   }
//  300 }
        LJMP    ?BRET
        CFI EndBlock cfiBlock8
//  301 /******************************************************************************
//  302  * @fn          zb_BindConfirm
//  303  *
//  304  * @brief       The zb_BindConfirm callback is called by the ZigBee stack
//  305  *              after a bind operation completes.
//  306  *
//  307  * @param       commandId - The command ID of the binding being confirmed.
//  308  *              status - The status of the bind operation.
//  309  *
//  310  * @return      none
//  311  */

        RSEG BANKED_CODE:CODE:NOROOT(0)
//  312 void zb_BindConfirm( uint16 commandId, uint8 status )
zb_BindConfirm:
        CFI Block cfiBlock9 Using cfiCommon0
        CFI Function zb_BindConfirm
//  313 {
        ; Saved register size: 0
        ; Auto size: 0
//  314 
//  315 
//  316 }
        LJMP    ?BRET
        CFI EndBlock cfiBlock9
//  317 /******************************************************************************
//  318  * @fn          zb_AllowBindConfirm
//  319  *
//  320  * @brief       Indicates when another device attempted to bind to this device
//  321  *
//  322  * @param
//  323  *
//  324  * @return      none
//  325  */

        RSEG BANKED_CODE:CODE:NOROOT(0)
//  326 void zb_AllowBindConfirm( uint16 source )
zb_AllowBindConfirm:
        CFI Block cfiBlock10 Using cfiCommon0
        CFI Function zb_AllowBindConfirm
//  327 {
        ; Saved register size: 0
        ; Auto size: 0
//  328 }
        LJMP    ?BRET
        CFI EndBlock cfiBlock10
//  329 /******************************************************************************
//  330  * @fn          zb_FindDeviceConfirm
//  331  *
//  332  * @brief       The zb_FindDeviceConfirm callback function is called by the
//  333  *              ZigBee stack when a find device operation completes.
//  334  *
//  335  * @param       searchType - The type of search that was performed.
//  336  *              searchKey - Value that the search was executed on.
//  337  *              result - The result of the search.
//  338  *
//  339  * @return      none
//  340  */

        RSEG BANKED_CODE:CODE:NOROOT(0)
//  341 void zb_FindDeviceConfirm( uint8 searchType, uint8 *searchKey, uint8 *result )
zb_FindDeviceConfirm:
        CFI Block cfiBlock11 Using cfiCommon0
        CFI Function zb_FindDeviceConfirm
//  342 {
        ; Saved register size: 0
        ; Auto size: 0
//  343 }
        LJMP    ?BRET
        CFI EndBlock cfiBlock11
//  344 
//  345 

        RSEG BANKED_CODE:CODE:NOROOT(0)
//  346 void zb_HanderMsg(osal_event_hdr_t *msg)
zb_HanderMsg:
        CFI Block cfiBlock12 Using cfiCommon0
        CFI Function zb_HanderMsg
//  347 {
        ; Saved register size: 0
        ; Auto size: 0
//  348 }
        LJMP    ?BRET
        CFI EndBlock cfiBlock12
//  349 
//  350 /******************************************************************************
//  351  * @fn          zb_ReceiveDataIndication
//  352  *
//  353  * @brief       The zb_ReceiveDataIndication callback function is called
//  354  *              asynchronously by the ZigBee stack to notify the application
//  355  *              when data is received from a peer device.
//  356  *
//  357  * @param       source - The short address of the peer device that sent the data
//  358  *              command - The commandId associated with the data
//  359  *              len - The number of bytes in the pData parameter
//  360  *              pData - The data sent by the peer device
//  361  *
//  362  * @return      none
//  363  */

        RSEG BANKED_CODE:CODE:NOROOT(0)
//  364 void zb_ReceiveDataIndication( uint16 source, uint16 command, uint16 len, uint8 *pData  )
zb_ReceiveDataIndication:
        CFI Block cfiBlock13 Using cfiCommon0
        CFI Function zb_ReceiveDataIndication
//  365 {
        FUNCALL zb_ReceiveDataIndication, HalLedSet
        LOCFRAME ISTACK, 0, STACK
        LOCFRAME PSTACK, 0, STACK
        LOCFRAME XSTACK, 82, STACK
        LOCFRAME IOVERLAY, 0, STATIC
        LOCFRAME DOVERLAY, 0, STATIC
        ARGFRAME ISTACK, 0, STACK
        ARGFRAME PSTACK, 0, STACK
        ARGFRAME XSTACK, 82, STACK
        ARGFRAME IOVERLAY, 0, STATIC
        ARGFRAME DOVERLAY, 0, STATIC
        FUNCALL zb_ReceiveDataIndication, HalLedSet
        LOCFRAME ISTACK, 0, STACK
        LOCFRAME PSTACK, 0, STACK
        LOCFRAME XSTACK, 82, STACK
        LOCFRAME IOVERLAY, 0, STATIC
        LOCFRAME DOVERLAY, 0, STATIC
        ARGFRAME ISTACK, 0, STACK
        ARGFRAME PSTACK, 0, STACK
        ARGFRAME XSTACK, 82, STACK
        ARGFRAME IOVERLAY, 0, STATIC
        ARGFRAME DOVERLAY, 0, STATIC
        FUNCALL zb_ReceiveDataIndication, zb_SendDataRequest
        LOCFRAME ISTACK, 0, STACK
        LOCFRAME PSTACK, 0, STACK
        LOCFRAME XSTACK, 87, STACK
        LOCFRAME IOVERLAY, 0, STATIC
        LOCFRAME DOVERLAY, 0, STATIC
        ARGFRAME ISTACK, 0, STACK
        ARGFRAME PSTACK, 0, STACK
        ARGFRAME XSTACK, 87, STACK
        ARGFRAME IOVERLAY, 0, STATIC
        ARGFRAME DOVERLAY, 0, STATIC
        FUNCALL zb_ReceiveDataIndication, zb_SendDataRequest
        LOCFRAME ISTACK, 0, STACK
        LOCFRAME PSTACK, 0, STACK
        LOCFRAME XSTACK, 87, STACK
        LOCFRAME IOVERLAY, 0, STATIC
        LOCFRAME DOVERLAY, 0, STATIC
        ARGFRAME ISTACK, 0, STACK
        ARGFRAME PSTACK, 0, STACK
        ARGFRAME XSTACK, 87, STACK
        ARGFRAME IOVERLAY, 0, STATIC
        ARGFRAME DOVERLAY, 0, STATIC
        FUNCALL zb_ReceiveDataIndication, paramRead
        LOCFRAME ISTACK, 0, STACK
        LOCFRAME PSTACK, 0, STACK
        LOCFRAME XSTACK, 82, STACK
        LOCFRAME IOVERLAY, 0, STATIC
        LOCFRAME DOVERLAY, 0, STATIC
        ARGFRAME ISTACK, 0, STACK
        ARGFRAME PSTACK, 0, STACK
        ARGFRAME XSTACK, 82, STACK
        ARGFRAME IOVERLAY, 0, STATIC
        ARGFRAME DOVERLAY, 0, STATIC
        FUNCALL zb_ReceiveDataIndication, zb_SendDataRequest
        LOCFRAME ISTACK, 0, STACK
        LOCFRAME PSTACK, 0, STACK
        LOCFRAME XSTACK, 87, STACK
        LOCFRAME IOVERLAY, 0, STATIC
        LOCFRAME DOVERLAY, 0, STATIC
        ARGFRAME ISTACK, 0, STACK
        ARGFRAME PSTACK, 0, STACK
        ARGFRAME XSTACK, 87, STACK
        ARGFRAME IOVERLAY, 0, STATIC
        ARGFRAME DOVERLAY, 0, STATIC
        FUNCALL zb_ReceiveDataIndication, zb_SendDataRequest
        LOCFRAME ISTACK, 0, STACK
        LOCFRAME PSTACK, 0, STACK
        LOCFRAME XSTACK, 87, STACK
        LOCFRAME IOVERLAY, 0, STATIC
        LOCFRAME DOVERLAY, 0, STATIC
        ARGFRAME ISTACK, 0, STACK
        ARGFRAME PSTACK, 0, STACK
        ARGFRAME XSTACK, 87, STACK
        ARGFRAME IOVERLAY, 0, STATIC
        ARGFRAME DOVERLAY, 0, STATIC
        MOV     A,#-0x12
        LCALL   ?BANKED_ENTER_XDATA
        CFI DPH0 load(1, XDATA, add(CFA_XSP16, literal(-1)))
        CFI DPL0 load(1, XDATA, add(CFA_XSP16, literal(-2)))
        CFI ?BRET_EXT load(1, XDATA, add(CFA_XSP16, literal(-3)))
        CFI ?RET_HIGH load(1, XDATA, add(CFA_XSP16, literal(-4)))
        CFI ?RET_LOW load(1, XDATA, add(CFA_XSP16, literal(-5)))
        CFI R7 load(1, XDATA, add(CFA_XSP16, literal(-6)))
        CFI V9 load(1, XDATA, add(CFA_XSP16, literal(-7)))
        CFI V8 load(1, XDATA, add(CFA_XSP16, literal(-8)))
        CFI V7 load(1, XDATA, add(CFA_XSP16, literal(-9)))
        CFI V6 load(1, XDATA, add(CFA_XSP16, literal(-10)))
        CFI V5 load(1, XDATA, add(CFA_XSP16, literal(-11)))
        CFI V4 load(1, XDATA, add(CFA_XSP16, literal(-12)))
        CFI V3 load(1, XDATA, add(CFA_XSP16, literal(-13)))
        CFI V2 load(1, XDATA, add(CFA_XSP16, literal(-14)))
        CFI V1 load(1, XDATA, add(CFA_XSP16, literal(-15)))
        CFI V0 load(1, XDATA, add(CFA_XSP16, literal(-16)))
        CFI VB load(1, XDATA, add(CFA_XSP16, literal(-17)))
        CFI R6 load(1, XDATA, add(CFA_XSP16, literal(-18)))
        CFI CFA_SP SP+0
        CFI CFA_XSP16 add(XSP16, 18)
        ; Saved register size: 18
        ; Auto size: 64
        MOV     A,#-0x40
        LCALL   ?ALLOC_XSTACK8
        CFI CFA_XSP16 add(XSP16, 82)
        MOV     A,R2
        MOV     R6,A
        MOV     A,R3
        MOV     R7,A
        MOV     ?V0 + 2,R4
        MOV     ?V0 + 3,R5
        MOV     A,#0x52
        LCALL   ?XSTACK_DISP0_8
        MOVX    A,@DPTR
        MOV     ?V0 + 4,A
        INC     DPTR
        MOVX    A,@DPTR
        MOV     ?V0 + 5,A
        MOV     A,#0x54
        LCALL   ?XSTACK_DISP0_8
        MOVX    A,@DPTR
        MOV     ?V0 + 0,A
        INC     DPTR
        MOVX    A,@DPTR
        MOV     ?V0 + 1,A
//  366   int i;
//  367   uint16 pid;
//  368   byte dat[64];
//  369   byte rlen = 1;
        MOV     ?V0 + 6,#0x1
//  370   int ret;
//  371   
//  372   HalLedSet( HAL_LED_1, HAL_LED_MODE_OFF );
        ; Setup parameters for call to function HalLedSet
        MOV     R2,#0x0
        MOV     R1,#0x1
        LCALL   ??HalLedSet?relay
//  373   HalLedSet( HAL_LED_1, HAL_LED_MODE_BLINK ); 
        ; Setup parameters for call to function HalLedSet
        MOV     R2,#0x2
        MOV     R1,#0x1
        LCALL   ??HalLedSet?relay
//  374   switch (command) {
        MOV     R0,#?V0 + 2
        LCALL   ?US_SWITCH_DENSE
`?<Jumptable for zb_ReceiveDataIndication>_0`:
        DATA
        DW        1
        DB        1
        DW        ??zb_ReceiveDataIndication_0
        DW        ??zb_ReceiveDataIndication_1
        DW        ??zb_ReceiveDataIndication_2
        CODE
//  375   case ID_CMD_WRITE_REQ:
//  376     for (i=0; i<len; i+=2) {
??zb_ReceiveDataIndication_2:
        MOV     ?V0 + 2,#0x0
        MOV     ?V0 + 3,#0x0
        SJMP    ??zb_ReceiveDataIndication_3
//  377       pid = pData[i]<<8 | pData[i+1];
//  378       ret = paramWrite(pid, pData+2);
??zb_ReceiveDataIndication_4:
        MOV     DPL,?V0 + 0
        MOV     DPH,?V0 + 1
        INC     DPTR
        INC     DPTR
        MOVX    A,@DPTR
        MOV     DPTR,#rfidOn
        MOVX    @DPTR,A
//  379       if (ret <= 0) {
//  380         dat[0] = 1;
//  381         zb_SendDataRequest( source, ID_CMD_WRITE_RES, 1, dat, 0, AF_ACK_REQUEST, 0 );
//  382         return;
//  383       } 
//  384       i += ret;
        MOV     A,?V0 + 2
        ADD     A,#0x3
        MOV     ?V0 + 2,A
        MOV     A,?V0 + 3
        ADDC    A,#0x0
        MOV     ?V0 + 3,A
??zb_ReceiveDataIndication_3:
        CLR     C
        MOV     A,?V0 + 2
        SUBB    A,?V0 + 4
        MOV     A,?V0 + 3
        SUBB    A,?V0 + 5
        JNC     ??zb_ReceiveDataIndication_5
        MOV     A,?V0 + 0
        ADD     A,?V0 + 2
        MOV     DPL,A
        MOV     A,?V0 + 1
        ADDC    A,?V0 + 3
        MOV     DPH,A
        MOVX    A,@DPTR
        MOV     R1,A
        INC     DPTR
        MOVX    A,@DPTR
        MOV     R0,A
        MOV     A,#0x1
        XRL     A,R0
        JNZ     ??zb_ReceiveDataIndication_6
        MOV     A,#0x8
        XRL     A,R1
??zb_ReceiveDataIndication_6:
        JZ      ??zb_ReceiveDataIndication_4
        MOV     A,#0x1
        MOV     DPL,?XSP + 0
        MOV     DPH,?XSP + 1
        MOVX    @DPTR,A
        ; Setup parameters for call to function zb_SendDataRequest
        MOV     ?V0 + 0,#0x0
??zb_ReceiveDataIndication_7:
        MOV     R0,#?V0 + 0
        LCALL   ?PUSH_XSTACK_I_ONE
        CFI CFA_XSP16 add(XSP16, 83)
        MOV     ?V0 + 0,#0x10
        MOV     R0,#?V0 + 0
        LCALL   ?PUSH_XSTACK_I_ONE
        CFI CFA_XSP16 add(XSP16, 84)
        MOV     ?V0 + 0,#0x0
        MOV     R0,#?V0 + 0
        LCALL   ?PUSH_XSTACK_I_ONE
        CFI CFA_XSP16 add(XSP16, 85)
        MOV     A,#0x3
        LCALL   ?XSTACK_DISP0_8
        MOV     ?V0 + 0,DPL
        MOV     ?V0 + 1,DPH
        MOV     R0,#?V0 + 0
        LCALL   ?PUSH_XSTACK_I_TWO
        CFI CFA_XSP16 add(XSP16, 87)
        MOV     R1,#0x1
        MOV     R4,#0x2
        LJMP    ??zb_ReceiveDataIndication_8 & 0xFFFF
        CFI CFA_XSP16 add(XSP16, 82)
//  385     }
//  386     dat[0] = 0;
??zb_ReceiveDataIndication_5:
        CLR     A
        MOV     DPL,?XSP + 0
        MOV     DPH,?XSP + 1
        MOVX    @DPTR,A
//  387     zb_SendDataRequest( source, ID_CMD_WRITE_RES, 1, dat, 0, AF_ACK_REQUEST, 0 );
        ; Setup parameters for call to function zb_SendDataRequest
        MOV     ?V0 + 0,A
        SJMP    ??zb_ReceiveDataIndication_7
//  388     break;
//  389   case ID_CMD_READ_REQ:
//  390     for (i=0; i<len; i+=2) {
??zb_ReceiveDataIndication_1:
        MOV     ?V0 + 2,#0x0
        MOV     ?V0 + 3,#0x0
        SJMP    ??zb_ReceiveDataIndication_9
//  391       pid = pData[i]<<8 | pData[i+1];
//  392       dat[rlen++] = pData[i];
//  393       dat[rlen++] = pData[i+1];
//  394       ret = paramRead(pid, dat+rlen);
//  395       if (ret <= 0) {
//  396         dat[0] = 1;
//  397         zb_SendDataRequest( source, ID_CMD_READ_RES, 1, dat, 0, AF_ACK_REQUEST, 0 );
//  398         return;
//  399       }
//  400       rlen += ret;
??zb_ReceiveDataIndication_10:
        MOV     A,R0
        ADD     A,?V0 + 6
        MOV     ?V0 + 6,A
        MOV     A,?V0 + 2
        ADD     A,#0x2
        MOV     ?V0 + 2,A
        MOV     A,?V0 + 3
        ADDC    A,#0x0
        MOV     ?V0 + 3,A
??zb_ReceiveDataIndication_9:
        CLR     C
        MOV     A,?V0 + 2
        SUBB    A,?V0 + 4
        MOV     A,?V0 + 3
        SUBB    A,?V0 + 5
        JC      $+5
        LJMP    ??zb_ReceiveDataIndication_11 & 0xFFFF
        MOV     A,?V0 + 0
        ADD     A,?V0 + 2
        MOV     R0,A
        MOV     A,?V0 + 1
        ADDC    A,?V0 + 3
        MOV     R1,A
        MOV     A,R0
        MOV     R4,A
        MOV     A,R1
        MOV     R5,A
        MOV     DPL,R4
        MOV     DPH,R5
        INC     DPTR
        MOV     R0,DPL
        MOV     R1,DPH
        MOV     DPL,R4
        MOV     DPH,R5
        MOVX    A,@DPTR
        MOV     R3,A
        MOV     DPL,R0
        MOV     DPH,R1
        MOVX    A,@DPTR
        MOV     R2,A
        LCALL   ?Subroutine8 & 0xFFFF
??CrossCallReturnLabel_16:
        MOV     A,R3
        MOVX    @DPTR,A
        INC     ?V0 + 6
        MOV     DPL,R0
        MOV     DPH,R1
        MOVX    A,@DPTR
        PUSH    A
        CFI CFA_SP SP+-1
        LCALL   ?Subroutine8 & 0xFFFF
??CrossCallReturnLabel_17:
        POP     A
        CFI CFA_SP SP+0
        MOVX    @DPTR,A
        INC     ?V0 + 6
        ; Setup parameters for call to function paramRead
        MOV     ?V0 + 8,?V0 + 6
        MOV     DPL,?XSP + 0
        MOV     DPH,?XSP + 1
        MOV     A,DPL
        ADD     A,?V0 + 8
        MOV     R4,A
        MOV     A,DPH
        ADDC    A,#0x0
        MOV     R5,A
        LCALL   ??paramRead?relay
        MOV     ?V0 + 8,R2
        MOV     R0,?V0 + 8
        CLR     C
        MOV     A,R0
        SUBB    A,#0x1
        LCALL   ?Subroutine7 & 0xFFFF
??CrossCallReturnLabel_13:
        JNC     ??zb_ReceiveDataIndication_10
        MOV     A,#0x1
        MOV     DPL,?XSP + 0
        MOV     DPH,?XSP + 1
        MOVX    @DPTR,A
        ; Setup parameters for call to function zb_SendDataRequest
        MOV     ?V0 + 0,#0x0
        MOV     R0,#?V0 + 0
        LCALL   ?PUSH_XSTACK_I_ONE
        CFI CFA_XSP16 add(XSP16, 83)
        MOV     ?V0 + 0,#0x10
        MOV     R0,#?V0 + 0
        LCALL   ?PUSH_XSTACK_I_ONE
        CFI CFA_XSP16 add(XSP16, 84)
        MOV     ?V0 + 0,#0x0
        MOV     R0,#?V0 + 0
        LCALL   ?PUSH_XSTACK_I_ONE
        CFI CFA_XSP16 add(XSP16, 85)
        MOV     A,#0x3
        LCALL   ?XSTACK_DISP0_8
        MOV     ?V0 + 0,DPL
        MOV     ?V0 + 1,DPH
        MOV     R0,#?V0 + 0
        LCALL   ?PUSH_XSTACK_I_TWO
        CFI CFA_XSP16 add(XSP16, 87)
        MOV     R1,#0x1
        SJMP    ??zb_ReceiveDataIndication_12
        CFI CFA_XSP16 add(XSP16, 82)
//  401     }
//  402     dat[0] = 0;
??zb_ReceiveDataIndication_11:
        CLR     A
        MOV     DPL,?XSP + 0
        MOV     DPH,?XSP + 1
        MOVX    @DPTR,A
//  403     zb_SendDataRequest( source, ID_CMD_READ_RES, rlen, dat, 0, AF_ACK_REQUEST, 0 );
        ; Setup parameters for call to function zb_SendDataRequest
        MOV     ?V0 + 0,A
        MOV     R0,#?V0 + 0
        LCALL   ?PUSH_XSTACK_I_ONE
        CFI CFA_XSP16 add(XSP16, 83)
        MOV     ?V0 + 0,#0x10
        MOV     R0,#?V0 + 0
        LCALL   ?PUSH_XSTACK_I_ONE
        CFI CFA_XSP16 add(XSP16, 84)
        MOV     ?V0 + 0,#0x0
        MOV     R0,#?V0 + 0
        LCALL   ?PUSH_XSTACK_I_ONE
        CFI CFA_XSP16 add(XSP16, 85)
        MOV     A,#0x3
        LCALL   ?XSTACK_DISP0_8
        MOV     ?V0 + 0,DPL
        MOV     ?V0 + 1,DPH
        MOV     R0,#?V0 + 0
        LCALL   ?PUSH_XSTACK_I_TWO
        CFI CFA_XSP16 add(XSP16, 87)
        MOV     R1,?V0 + 6
??zb_ReceiveDataIndication_12:
        MOV     R4,#0x1
??zb_ReceiveDataIndication_8:
        MOV     R5,#-0x80
        MOV     A,R6
        MOV     R2,A
        MOV     A,R7
        MOV     R3,A
        LCALL   ??zb_SendDataRequest?relay
        MOV     A,#0x5
        LCALL   ?DEALLOC_XSTACK8
        CFI CFA_XSP16 add(XSP16, 82)
//  404     break;
//  405   }
//  406 }
??zb_ReceiveDataIndication_0:
        MOV     A,#0x40
        LCALL   ?DEALLOC_XSTACK8
        CFI CFA_XSP16 add(XSP16, 18)
        MOV     R7,#0xa
        LJMP    ?BANKED_LEAVE_XDATA
        CFI EndBlock cfiBlock13

        RSEG BANKED_CODE:CODE:NOROOT(0)
?Subroutine8:
        CFI Block cfiCond14 Using cfiCommon0
        CFI NoFunction
        CFI Conditional ??CrossCallReturnLabel_16
        CFI R6 load(1, XDATA, add(CFA_XSP16, literal(-18)))
        CFI VB load(1, XDATA, add(CFA_XSP16, literal(-17)))
        CFI V0 load(1, XDATA, add(CFA_XSP16, literal(-16)))
        CFI V1 load(1, XDATA, add(CFA_XSP16, literal(-15)))
        CFI V2 load(1, XDATA, add(CFA_XSP16, literal(-14)))
        CFI V3 load(1, XDATA, add(CFA_XSP16, literal(-13)))
        CFI V4 load(1, XDATA, add(CFA_XSP16, literal(-12)))
        CFI V5 load(1, XDATA, add(CFA_XSP16, literal(-11)))
        CFI V6 load(1, XDATA, add(CFA_XSP16, literal(-10)))
        CFI V7 load(1, XDATA, add(CFA_XSP16, literal(-9)))
        CFI V8 load(1, XDATA, add(CFA_XSP16, literal(-8)))
        CFI V9 load(1, XDATA, add(CFA_XSP16, literal(-7)))
        CFI R7 load(1, XDATA, add(CFA_XSP16, literal(-6)))
        CFI ?RET_LOW load(1, XDATA, add(CFA_XSP16, literal(-5)))
        CFI ?RET_HIGH load(1, XDATA, add(CFA_XSP16, literal(-4)))
        CFI ?BRET_EXT load(1, XDATA, add(CFA_XSP16, literal(-3)))
        CFI DPL0 load(1, XDATA, add(CFA_XSP16, literal(-2)))
        CFI DPH0 load(1, XDATA, add(CFA_XSP16, literal(-1)))
        CFI CFA_SP SP+0
        CFI CFA_XSP16 add(XSP16, 82)
        CFI Block cfiCond15 Using cfiCommon0
        CFI (cfiCond15) NoFunction
        CFI (cfiCond15) Conditional ??CrossCallReturnLabel_17
        CFI (cfiCond15) R6 load(1, XDATA, add(CFA_XSP16, literal(-18)))
        CFI (cfiCond15) VB load(1, XDATA, add(CFA_XSP16, literal(-17)))
        CFI (cfiCond15) V0 load(1, XDATA, add(CFA_XSP16, literal(-16)))
        CFI (cfiCond15) V1 load(1, XDATA, add(CFA_XSP16, literal(-15)))
        CFI (cfiCond15) V2 load(1, XDATA, add(CFA_XSP16, literal(-14)))
        CFI (cfiCond15) V3 load(1, XDATA, add(CFA_XSP16, literal(-13)))
        CFI (cfiCond15) V4 load(1, XDATA, add(CFA_XSP16, literal(-12)))
        CFI (cfiCond15) V5 load(1, XDATA, add(CFA_XSP16, literal(-11)))
        CFI (cfiCond15) V6 load(1, XDATA, add(CFA_XSP16, literal(-10)))
        CFI (cfiCond15) V7 load(1, XDATA, add(CFA_XSP16, literal(-9)))
        CFI (cfiCond15) V8 load(1, XDATA, add(CFA_XSP16, literal(-8)))
        CFI (cfiCond15) V9 load(1, XDATA, add(CFA_XSP16, literal(-7)))
        CFI (cfiCond15) R7 load(1, XDATA, add(CFA_XSP16, literal(-6)))
        CFI (cfiCond15) ?RET_LOW load(1, XDATA, add(CFA_XSP16, literal(-5)))
        CFI (cfiCond15) ?RET_HIGH load(1, XDATA, add(CFA_XSP16, literal(-4)))
        CFI (cfiCond15) ?BRET_EXT load(1, XDATA, add(CFA_XSP16, literal(-3)))
        CFI (cfiCond15) DPL0 load(1, XDATA, add(CFA_XSP16, literal(-2)))
        CFI (cfiCond15) DPH0 load(1, XDATA, add(CFA_XSP16, literal(-1)))
        CFI (cfiCond15) CFA_SP SP+-1
        CFI (cfiCond15) CFA_XSP16 add(XSP16, 82)
        CFI Block cfiPicker16 Using cfiCommon1
        CFI (cfiPicker16) NoFunction
        CFI (cfiPicker16) Picker
        MOV     ?V0 + 8,?V0 + 6
        MOV     DPL,?XSP + 0
        MOV     DPH,?XSP + 1
        MOV     A,DPL
        ADD     A,?V0 + 8
        MOV     DPL,A
        MOV     A,DPH
        ADDC    A,#0x0
        MOV     DPH,A
        RET
        CFI EndBlock cfiCond14
        CFI EndBlock cfiCond15
        CFI EndBlock cfiPicker16
//  407 
//  408 
//  409 /******************************************************************************
//  410  * @fn          
//  411  *
//  412  * @brief       Reports temperature sensor reading
//  413  *
//  414  * @param
//  415  *
//  416  * @return
//  417  */
//  418 
//  419 
//  420 /******************************************************************************
//  421  * @fn          myApp_ReadTemperature
//  422  *
//  423  * @brief       Reports temperature sensor reading
//  424  *
//  425  * @param
//  426  *
//  427  * @return
//  428  */
//  429 
//  430 
//  431 static int paramWrite(uint16 pid, byte *dat)
//  432 {
//  433   int len = 0;
//  434   switch (pid) {
//  435   case 0x0801:
//  436     rfidOn = dat[0];
//  437     len = 1;
//  438     break;
//  439   }
//  440   return len;
//  441 }
//  442 

        RSEG BANKED_CODE:CODE:NOROOT(0)
//  443 static int paramRead(uint16 pid, byte *dat)
paramRead:
        CFI Block cfiBlock17 Using cfiCommon0
        CFI Function paramRead
//  444 {
        FUNCALL paramRead, ZMacGetReq
        LOCFRAME ISTACK, 0, STACK
        LOCFRAME PSTACK, 0, STACK
        LOCFRAME XSTACK, 13, STACK
        LOCFRAME IOVERLAY, 0, STATIC
        LOCFRAME DOVERLAY, 0, STATIC
        ARGFRAME ISTACK, 0, STACK
        ARGFRAME PSTACK, 0, STACK
        ARGFRAME XSTACK, 13, STACK
        ARGFRAME IOVERLAY, 0, STATIC
        ARGFRAME DOVERLAY, 0, STATIC
        FUNCALL paramRead, MT_ReverseBytes
        LOCFRAME ISTACK, 0, STACK
        LOCFRAME PSTACK, 0, STACK
        LOCFRAME XSTACK, 13, STACK
        LOCFRAME IOVERLAY, 0, STATIC
        LOCFRAME DOVERLAY, 0, STATIC
        ARGFRAME ISTACK, 0, STACK
        ARGFRAME PSTACK, 0, STACK
        ARGFRAME XSTACK, 13, STACK
        ARGFRAME IOVERLAY, 0, STATIC
        ARGFRAME DOVERLAY, 0, STATIC
        FUNCALL paramRead, AssocMakeList
        LOCFRAME ISTACK, 0, STACK
        LOCFRAME PSTACK, 0, STACK
        LOCFRAME XSTACK, 13, STACK
        LOCFRAME IOVERLAY, 0, STATIC
        LOCFRAME DOVERLAY, 0, STATIC
        ARGFRAME ISTACK, 0, STACK
        ARGFRAME PSTACK, 0, STACK
        ARGFRAME XSTACK, 13, STACK
        ARGFRAME IOVERLAY, 0, STATIC
        ARGFRAME DOVERLAY, 0, STATIC
        MOV     A,#-0xc
        LCALL   ?BANKED_ENTER_XDATA
        CFI DPH0 load(1, XDATA, add(CFA_XSP16, literal(-1)))
        CFI DPL0 load(1, XDATA, add(CFA_XSP16, literal(-2)))
        CFI ?BRET_EXT load(1, XDATA, add(CFA_XSP16, literal(-3)))
        CFI ?RET_HIGH load(1, XDATA, add(CFA_XSP16, literal(-4)))
        CFI ?RET_LOW load(1, XDATA, add(CFA_XSP16, literal(-5)))
        CFI R7 load(1, XDATA, add(CFA_XSP16, literal(-6)))
        CFI V3 load(1, XDATA, add(CFA_XSP16, literal(-7)))
        CFI V2 load(1, XDATA, add(CFA_XSP16, literal(-8)))
        CFI V1 load(1, XDATA, add(CFA_XSP16, literal(-9)))
        CFI V0 load(1, XDATA, add(CFA_XSP16, literal(-10)))
        CFI VB load(1, XDATA, add(CFA_XSP16, literal(-11)))
        CFI R6 load(1, XDATA, add(CFA_XSP16, literal(-12)))
        CFI CFA_SP SP+0
        CFI CFA_XSP16 add(XSP16, 12)
        ; Saved register size: 12
        ; Auto size: 1
        MOV     A,#-0x1
        LCALL   ?ALLOC_XSTACK8
        CFI CFA_XSP16 add(XSP16, 13)
        MOV     A,R4
        MOV     R6,A
        MOV     A,R5
        MOV     R7,A
//  445   int len = 0;
        MOV     R4,#0x0
        MOV     R5,#0x0
//  446   switch (pid) {
        MOV     ?V0 + 0,R2
        MOV     ?V0 + 1,R3
        MOV     R0,#?V0 + 0
        LCALL   ?US_SWITCH_SPARSE
`?<Jumptable for paramRead>_0`:
        DATA
        DW        1
        DW        2562
        DW        2564
        DW        ??paramRead_0
        DW        9
        DW        1
        DW        ??paramRead_1
        DW        2
        DW        ??paramRead_2
        DW        3
        DW        ??paramRead_3
        DW        4
        DW        ??paramRead_4
        DW        5
        DW        ??paramRead_5
        DW        20
        DW        ??paramRead_6
        DW        21
        DW        ??paramRead_7
        DW        2561
        DW        ??paramRead_8
        DW        2576
        DW        ??paramRead_0
        DW        ??paramRead_0
        CODE
//  447   case 0x0001:
//  448     dat[0] = 0x11; dat[1] = 0x33;
??paramRead_1:
        MOV     A,#0x11
        MOV     DPL,R6
        MOV     DPH,R7
        MOVX    @DPTR,A
        MOV     A,#0x33
??paramRead_9:
        INC     DPTR
        MOVX    @DPTR,A
//  449     len = 2;
        INC     R4
        LJMP    ??paramRead_10 & 0xFFFF
//  450     break;
//  451   case 0x0002:
//  452     dat[0] = 0x22; dat[1] = 0x44;
??paramRead_2:
        MOV     A,#0x22
        MOV     DPL,R6
        MOV     DPH,R7
        MOVX    @DPTR,A
        MOV     A,#0x44
        SJMP    ??paramRead_9
//  453     len = 2;
//  454     break;
//  455   case 0x0003:
//  456     dat[0] = 0x00; dat[1] = 0x01;
??paramRead_3:
        CLR     A
        MOV     DPL,R6
        MOV     DPH,R7
        MOVX    @DPTR,A
        MOV     A,#0x1
        SJMP    ??paramRead_9
//  457     len = 2;
//  458     break;
//  459   case 0x0004:
//  460     dat[0] = dat[1] = dat[2] = dat[3] = dat[4] = dat[5] = 1;
??paramRead_4:
        MOV     A,#0x1
        MOV     DPL,R6
        MOV     DPH,R7
        INC     DPTR
        INC     DPTR
        INC     DPTR
        INC     DPTR
        LCALL   ?Subroutine6 & 0xFFFF
??CrossCallReturnLabel_11:
        LCALL   ?Subroutine6 & 0xFFFF
??CrossCallReturnLabel_12:
        LCALL   ??Subroutine10_0 & 0xFFFF
??CrossCallReturnLabel_18:
        LCALL   ?Subroutine9 & 0xFFFF
??CrossCallReturnLabel_19:
        MOVX    @DPTR,A
        MOV     DPL,R6
        MOV     DPH,R7
        MOVX    @DPTR,A
//  461     len = 6;
        MOV     R4,#0x6
        LJMP    ??paramRead_0 & 0xFFFF
//  462     break;
//  463   case 0x0005:
//  464     dat[0] = DEV_ID_RFID;
??paramRead_5:
        MOV     A,#0x8
        LJMP    ??paramRead_11 & 0xFFFF
//  465     len = 1;
//  466     break;
//  467     
//  468   /* -----------  网络参数 ------------------- */  
//  469   case 0x0014: //mac地址
//  470      /*osal_nv_read( ZCD_NV_EXTADDR, 0, Z_EXTADDR_LEN, pBuf ); rm by liren */
//  471     ZMacGetReq( ZMacExtAddr, dat ); // add by liren
??paramRead_6:
        ; Setup parameters for call to function ZMacGetReq
        MOV     A,R6
        MOV     R2,A
        MOV     A,R7
        MOV     R3,A
        MOV     R1,#-0x1e
        LCALL   ??ZMacGetReq?relay
//  472     // Outgoing extended address needs to be reversed
//  473     MT_ReverseBytes( dat, Z_EXTADDR_LEN );
        ; Setup parameters for call to function MT_ReverseBytes
        MOV     R1,#0x8
        MOV     A,R6
        MOV     R2,A
        MOV     A,R7
        MOV     R3,A
        LCALL   ??MT_ReverseBytes?relay
//  474     len = Z_EXTADDR_LEN;
        MOV     R4,#0x8
        MOV     R5,#0x0
        LJMP    ??paramRead_0 & 0xFFFF
//  475     break;
//  476   case 0x0015:
//  477   {
//  478       uint8 assocCnt = 0;
??paramRead_7:
        CLR     A
        MOV     DPL,?XSP + 0
        MOV     DPH,?XSP + 1
        MOVX    @DPTR,A
//  479       uint16 *assocList;
//  480       int i;
//  481 #if defined(RTR_NWK) && !defined( NONWK )
//  482     assocList = AssocMakeList( &assocCnt );
        ; Setup parameters for call to function AssocMakeList
        MOV     R2,DPL
        MOV     R3,DPH
        LCALL   ??AssocMakeList?relay
        MOV     ?V0 + 2,R2
        MOV     ?V0 + 3,R3
//  483 #else
//  484     assocCnt = 0;
//  485     assocList = NULL;
//  486 #endif
//  487     dat[0] = assocCnt;
        MOV     DPL,?XSP + 0
        MOV     DPH,?XSP + 1
        MOVX    A,@DPTR
        MOV     DPL,R6
        MOV     DPH,R7
        MOVX    @DPTR,A
//  488     for (i=0; i<assocCnt&&i<16; i++) {
        MOV     R2,#0x0
        MOV     R3,#0x0
        SJMP    ??paramRead_12
//  489       dat[1+2*i] = HI_UINT16(assocList[i]);
??paramRead_13:
        MOV     A,R2
        MOV     R0,A
        MOV     A,R3
        MOV     R1,A
        MOV     A,R0
        CLR     C
        RLC     A
        MOV     R0,A
        MOV     A,R1
        RLC     A
        MOV     R1,A
        MOV     A,R6
        ADD     A,R0
        MOV     R4,A
        MOV     A,R7
        ADDC    A,R1
        MOV     R5,A
        MOV     A,?V0 + 2
        ADD     A,R0
        MOV     R0,A
        MOV     A,?V0 + 3
        ADDC    A,R1
        MOV     R1,A
        MOV     DPL,R0
        MOV     DPH,R1
        INC     DPTR
        MOVX    A,@DPTR
        MOV     DPL,R4
        MOV     DPH,R5
        INC     DPTR
        MOVX    @DPTR,A
//  490       dat[1+2*i+1] = LO_UINT16(assocList[i]);
        MOV     DPL,R0
        MOV     DPH,R1
        MOVX    A,@DPTR
        MOV     DPL,R4
        MOV     DPH,R5
        INC     DPTR
        INC     DPTR
        MOVX    @DPTR,A
//  491     }
        MOV     A,R2
        ADD     A,#0x1
        INC     R2
        MOV     A,R3
        ADDC    A,#0x0
        MOV     R3,A
??paramRead_12:
        MOV     DPL,?XSP + 0
        MOV     DPH,?XSP + 1
        MOVX    A,@DPTR
        MOV     R0,A
        CLR     C
        MOV     A,R2
        SUBB    A,R0
        LCALL   ?Subroutine7 & 0xFFFF
??CrossCallReturnLabel_14:
        JNC     ??paramRead_14
        CLR     C
        MOV     A,R2
        SUBB    A,#0x10
        LCALL   ?Subroutine7 & 0xFFFF
??CrossCallReturnLabel_15:
        JC      ??paramRead_13
//  492     len = 1 + 2 * assocCnt;
??paramRead_14:
        MOVX    A,@DPTR
        CLR     C
        RLC     A
        MOV     R0,A
        CLR     A
        RLC     A
        MOV     R1,A
        MOV     A,#0x1
        ADD     A,R0
        MOV     R4,A
        CLR     A
        ADDC    A,R1
        MOV     R5,A
//  493     break;
        SJMP    ??paramRead_0
//  494   }
//  495  /* ------------------------------------ */
//  496   case 0x0a01:
//  497     dat[0] = rfidOn;
??paramRead_8:
        MOV     DPTR,#rfidOn
        MOVX    A,@DPTR
??paramRead_11:
        MOV     DPL,R6
        MOV     DPH,R7
        MOVX    @DPTR,A
//  498     len = 1;
??paramRead_10:
        INC     R4
//  499     break;
//  500   case 0x0a02:  /* 读取加速度传感器X值*/
//  501     len = 0;
//  502     break;
//  503   case 0x0a03:  /* 读取加速度传感器Y值*/
//  504     len = 0;
//  505     break;
//  506   case 0x0a04:  /* 读取加速度传感器Z值*/
//  507     len = 0;
//  508     break;
//  509   case 0x0a10:  /* 主动上报X,Y,Z的值*/
//  510     len = 0;
//  511     break;
//  512     
//  513   }
//  514   return len;
??paramRead_0:
        MOV     A,R4
        MOV     R2,A
        MOV     A,R5
        MOV     R3,A
        MOV     A,#0x1
        LCALL   ?DEALLOC_XSTACK8
        CFI EndBlock cfiBlock17
        REQUIRE ?Subroutine2
        ; // Fall through to label ?Subroutine2
//  515 }

        RSEG BANKED_CODE:CODE:NOROOT(0)
?Subroutine2:
        CFI Block cfiBlock18 Using cfiCommon0
        CFI NoFunction
        CFI CFA_SP SP+0
        CFI CFA_XSP16 add(XSP16, 12)
        CFI VB load(1, XDATA, add(CFA_XSP16, literal(-11)))
        CFI DPL0 load(1, XDATA, add(CFA_XSP16, literal(-2)))
        CFI DPH0 load(1, XDATA, add(CFA_XSP16, literal(-1)))
        CFI R6 load(1, XDATA, add(CFA_XSP16, literal(-12)))
        CFI R7 load(1, XDATA, add(CFA_XSP16, literal(-6)))
        CFI V0 load(1, XDATA, add(CFA_XSP16, literal(-10)))
        CFI V1 load(1, XDATA, add(CFA_XSP16, literal(-9)))
        CFI V2 load(1, XDATA, add(CFA_XSP16, literal(-8)))
        CFI V3 load(1, XDATA, add(CFA_XSP16, literal(-7)))
        CFI ?BRET_EXT load(1, XDATA, add(CFA_XSP16, literal(-3)))
        CFI ?RET_HIGH load(1, XDATA, add(CFA_XSP16, literal(-4)))
        CFI ?RET_LOW load(1, XDATA, add(CFA_XSP16, literal(-5)))
        MOV     R7,#0x4
        LJMP    ?BANKED_LEAVE_XDATA
        CFI EndBlock cfiBlock18

        RSEG BANKED_CODE:CODE:NOROOT(0)
?Subroutine7:
        CFI Block cfiCond19 Using cfiCommon0
        CFI NoFunction
        CFI Conditional ??CrossCallReturnLabel_13
        CFI R6 load(1, XDATA, add(CFA_XSP16, literal(-18)))
        CFI VB load(1, XDATA, add(CFA_XSP16, literal(-17)))
        CFI V0 load(1, XDATA, add(CFA_XSP16, literal(-16)))
        CFI V1 load(1, XDATA, add(CFA_XSP16, literal(-15)))
        CFI V2 load(1, XDATA, add(CFA_XSP16, literal(-14)))
        CFI V3 load(1, XDATA, add(CFA_XSP16, literal(-13)))
        CFI V4 load(1, XDATA, add(CFA_XSP16, literal(-12)))
        CFI V5 load(1, XDATA, add(CFA_XSP16, literal(-11)))
        CFI V6 load(1, XDATA, add(CFA_XSP16, literal(-10)))
        CFI V7 load(1, XDATA, add(CFA_XSP16, literal(-9)))
        CFI V8 load(1, XDATA, add(CFA_XSP16, literal(-8)))
        CFI V9 load(1, XDATA, add(CFA_XSP16, literal(-7)))
        CFI R7 load(1, XDATA, add(CFA_XSP16, literal(-6)))
        CFI ?RET_LOW load(1, XDATA, add(CFA_XSP16, literal(-5)))
        CFI ?RET_HIGH load(1, XDATA, add(CFA_XSP16, literal(-4)))
        CFI ?BRET_EXT load(1, XDATA, add(CFA_XSP16, literal(-3)))
        CFI DPL0 load(1, XDATA, add(CFA_XSP16, literal(-2)))
        CFI DPH0 load(1, XDATA, add(CFA_XSP16, literal(-1)))
        CFI CFA_SP SP+0
        CFI CFA_XSP16 add(XSP16, 82)
        CFI Block cfiCond20 Using cfiCommon0
        CFI (cfiCond20) NoFunction
        CFI (cfiCond20) Conditional ??CrossCallReturnLabel_14
        CFI (cfiCond20) R6 load(1, XDATA, add(CFA_XSP16, literal(-12)))
        CFI (cfiCond20) VB load(1, XDATA, add(CFA_XSP16, literal(-11)))
        CFI (cfiCond20) V0 load(1, XDATA, add(CFA_XSP16, literal(-10)))
        CFI (cfiCond20) V1 load(1, XDATA, add(CFA_XSP16, literal(-9)))
        CFI (cfiCond20) V2 load(1, XDATA, add(CFA_XSP16, literal(-8)))
        CFI (cfiCond20) V3 load(1, XDATA, add(CFA_XSP16, literal(-7)))
        CFI (cfiCond20) R7 load(1, XDATA, add(CFA_XSP16, literal(-6)))
        CFI (cfiCond20) ?RET_LOW load(1, XDATA, add(CFA_XSP16, literal(-5)))
        CFI (cfiCond20) ?RET_HIGH load(1, XDATA, add(CFA_XSP16, literal(-4)))
        CFI (cfiCond20) ?BRET_EXT load(1, XDATA, add(CFA_XSP16, literal(-3)))
        CFI (cfiCond20) DPL0 load(1, XDATA, add(CFA_XSP16, literal(-2)))
        CFI (cfiCond20) DPH0 load(1, XDATA, add(CFA_XSP16, literal(-1)))
        CFI (cfiCond20) CFA_SP SP+0
        CFI (cfiCond20) CFA_XSP16 add(XSP16, 13)
        CFI Block cfiCond21 Using cfiCommon0
        CFI (cfiCond21) NoFunction
        CFI (cfiCond21) Conditional ??CrossCallReturnLabel_15
        CFI (cfiCond21) R6 load(1, XDATA, add(CFA_XSP16, literal(-12)))
        CFI (cfiCond21) VB load(1, XDATA, add(CFA_XSP16, literal(-11)))
        CFI (cfiCond21) V0 load(1, XDATA, add(CFA_XSP16, literal(-10)))
        CFI (cfiCond21) V1 load(1, XDATA, add(CFA_XSP16, literal(-9)))
        CFI (cfiCond21) V2 load(1, XDATA, add(CFA_XSP16, literal(-8)))
        CFI (cfiCond21) V3 load(1, XDATA, add(CFA_XSP16, literal(-7)))
        CFI (cfiCond21) R7 load(1, XDATA, add(CFA_XSP16, literal(-6)))
        CFI (cfiCond21) ?RET_LOW load(1, XDATA, add(CFA_XSP16, literal(-5)))
        CFI (cfiCond21) ?RET_HIGH load(1, XDATA, add(CFA_XSP16, literal(-4)))
        CFI (cfiCond21) ?BRET_EXT load(1, XDATA, add(CFA_XSP16, literal(-3)))
        CFI (cfiCond21) DPL0 load(1, XDATA, add(CFA_XSP16, literal(-2)))
        CFI (cfiCond21) DPH0 load(1, XDATA, add(CFA_XSP16, literal(-1)))
        CFI (cfiCond21) CFA_SP SP+0
        CFI (cfiCond21) CFA_XSP16 add(XSP16, 13)
        CFI Block cfiPicker22 Using cfiCommon1
        CFI (cfiPicker22) NoFunction
        CFI (cfiPicker22) Picker
        MOV     A,R3
        SUBB    A,#0x0
        MOV     C,0xD0 /* PSW */.2
        XRL     A,PSW
        RLC     A
        RET
        CFI EndBlock cfiCond19
        CFI EndBlock cfiCond20
        CFI EndBlock cfiCond21
        CFI EndBlock cfiPicker22

        RSEG BANKED_CODE:CODE:NOROOT(0)
?Subroutine6:
        CFI Block cfiCond23 Using cfiCommon0
        CFI NoFunction
        CFI Conditional ??CrossCallReturnLabel_11
        CFI R6 load(1, XDATA, add(CFA_XSP16, literal(-12)))
        CFI VB load(1, XDATA, add(CFA_XSP16, literal(-11)))
        CFI V0 load(1, XDATA, add(CFA_XSP16, literal(-10)))
        CFI V1 load(1, XDATA, add(CFA_XSP16, literal(-9)))
        CFI V2 load(1, XDATA, add(CFA_XSP16, literal(-8)))
        CFI V3 load(1, XDATA, add(CFA_XSP16, literal(-7)))
        CFI R7 load(1, XDATA, add(CFA_XSP16, literal(-6)))
        CFI ?RET_LOW load(1, XDATA, add(CFA_XSP16, literal(-5)))
        CFI ?RET_HIGH load(1, XDATA, add(CFA_XSP16, literal(-4)))
        CFI ?BRET_EXT load(1, XDATA, add(CFA_XSP16, literal(-3)))
        CFI DPL0 load(1, XDATA, add(CFA_XSP16, literal(-2)))
        CFI DPH0 load(1, XDATA, add(CFA_XSP16, literal(-1)))
        CFI CFA_SP SP+0
        CFI CFA_XSP16 add(XSP16, 13)
        CFI Block cfiCond24 Using cfiCommon0
        CFI (cfiCond24) NoFunction
        CFI (cfiCond24) Conditional ??CrossCallReturnLabel_12
        CFI (cfiCond24) R6 load(1, XDATA, add(CFA_XSP16, literal(-12)))
        CFI (cfiCond24) VB load(1, XDATA, add(CFA_XSP16, literal(-11)))
        CFI (cfiCond24) V0 load(1, XDATA, add(CFA_XSP16, literal(-10)))
        CFI (cfiCond24) V1 load(1, XDATA, add(CFA_XSP16, literal(-9)))
        CFI (cfiCond24) V2 load(1, XDATA, add(CFA_XSP16, literal(-8)))
        CFI (cfiCond24) V3 load(1, XDATA, add(CFA_XSP16, literal(-7)))
        CFI (cfiCond24) R7 load(1, XDATA, add(CFA_XSP16, literal(-6)))
        CFI (cfiCond24) ?RET_LOW load(1, XDATA, add(CFA_XSP16, literal(-5)))
        CFI (cfiCond24) ?RET_HIGH load(1, XDATA, add(CFA_XSP16, literal(-4)))
        CFI (cfiCond24) ?BRET_EXT load(1, XDATA, add(CFA_XSP16, literal(-3)))
        CFI (cfiCond24) DPL0 load(1, XDATA, add(CFA_XSP16, literal(-2)))
        CFI (cfiCond24) DPH0 load(1, XDATA, add(CFA_XSP16, literal(-1)))
        CFI (cfiCond24) CFA_SP SP+0
        CFI (cfiCond24) CFA_XSP16 add(XSP16, 13)
        CFI Block cfiPicker25 Using cfiCommon1
        CFI (cfiPicker25) NoFunction
        CFI (cfiPicker25) Picker
        LCALL   ?Subroutine9 & 0xFFFF
??CrossCallReturnLabel_20:
        INC     DPTR
        INC     DPTR
        RET
        CFI EndBlock cfiCond23
        CFI EndBlock cfiCond24
        CFI EndBlock cfiPicker25

        RSEG BANKED_CODE:CODE:NOROOT(0)
?Subroutine9:
        CFI Block cfiCond26 Using cfiCommon0
        CFI NoFunction
        CFI Conditional ??CrossCallReturnLabel_19
        CFI R6 load(1, XDATA, add(CFA_XSP16, literal(-12)))
        CFI VB load(1, XDATA, add(CFA_XSP16, literal(-11)))
        CFI V0 load(1, XDATA, add(CFA_XSP16, literal(-10)))
        CFI V1 load(1, XDATA, add(CFA_XSP16, literal(-9)))
        CFI V2 load(1, XDATA, add(CFA_XSP16, literal(-8)))
        CFI V3 load(1, XDATA, add(CFA_XSP16, literal(-7)))
        CFI R7 load(1, XDATA, add(CFA_XSP16, literal(-6)))
        CFI ?RET_LOW load(1, XDATA, add(CFA_XSP16, literal(-5)))
        CFI ?RET_HIGH load(1, XDATA, add(CFA_XSP16, literal(-4)))
        CFI ?BRET_EXT load(1, XDATA, add(CFA_XSP16, literal(-3)))
        CFI DPL0 load(1, XDATA, add(CFA_XSP16, literal(-2)))
        CFI DPH0 load(1, XDATA, add(CFA_XSP16, literal(-1)))
        CFI CFA_SP SP+0
        CFI CFA_XSP16 add(XSP16, 13)
        CFI Block cfiCond27 Using cfiCommon0
        CFI (cfiCond27) NoFunction
        CFI (cfiCond27) Conditional ??CrossCallReturnLabel_20, ??CrossCallReturnLabel_11
        CFI (cfiCond27) R6 load(1, XDATA, add(CFA_XSP16, literal(-12)))
        CFI (cfiCond27) VB load(1, XDATA, add(CFA_XSP16, literal(-11)))
        CFI (cfiCond27) V0 load(1, XDATA, add(CFA_XSP16, literal(-10)))
        CFI (cfiCond27) V1 load(1, XDATA, add(CFA_XSP16, literal(-9)))
        CFI (cfiCond27) V2 load(1, XDATA, add(CFA_XSP16, literal(-8)))
        CFI (cfiCond27) V3 load(1, XDATA, add(CFA_XSP16, literal(-7)))
        CFI (cfiCond27) R7 load(1, XDATA, add(CFA_XSP16, literal(-6)))
        CFI (cfiCond27) ?RET_LOW load(1, XDATA, add(CFA_XSP16, literal(-5)))
        CFI (cfiCond27) ?RET_HIGH load(1, XDATA, add(CFA_XSP16, literal(-4)))
        CFI (cfiCond27) ?BRET_EXT load(1, XDATA, add(CFA_XSP16, literal(-3)))
        CFI (cfiCond27) DPL0 load(1, XDATA, add(CFA_XSP16, literal(-2)))
        CFI (cfiCond27) DPH0 load(1, XDATA, add(CFA_XSP16, literal(-1)))
        CFI (cfiCond27) CFA_SP SP+0
        CFI (cfiCond27) CFA_XSP16 add(XSP16, 13)
        CFI Block cfiCond28 Using cfiCommon0
        CFI (cfiCond28) NoFunction
        CFI (cfiCond28) Conditional ??CrossCallReturnLabel_20, ??CrossCallReturnLabel_12
        CFI (cfiCond28) R6 load(1, XDATA, add(CFA_XSP16, literal(-12)))
        CFI (cfiCond28) VB load(1, XDATA, add(CFA_XSP16, literal(-11)))
        CFI (cfiCond28) V0 load(1, XDATA, add(CFA_XSP16, literal(-10)))
        CFI (cfiCond28) V1 load(1, XDATA, add(CFA_XSP16, literal(-9)))
        CFI (cfiCond28) V2 load(1, XDATA, add(CFA_XSP16, literal(-8)))
        CFI (cfiCond28) V3 load(1, XDATA, add(CFA_XSP16, literal(-7)))
        CFI (cfiCond28) R7 load(1, XDATA, add(CFA_XSP16, literal(-6)))
        CFI (cfiCond28) ?RET_LOW load(1, XDATA, add(CFA_XSP16, literal(-5)))
        CFI (cfiCond28) ?RET_HIGH load(1, XDATA, add(CFA_XSP16, literal(-4)))
        CFI (cfiCond28) ?BRET_EXT load(1, XDATA, add(CFA_XSP16, literal(-3)))
        CFI (cfiCond28) DPL0 load(1, XDATA, add(CFA_XSP16, literal(-2)))
        CFI (cfiCond28) DPH0 load(1, XDATA, add(CFA_XSP16, literal(-1)))
        CFI (cfiCond28) CFA_SP SP+0
        CFI (cfiCond28) CFA_XSP16 add(XSP16, 13)
        CFI Block cfiPicker29 Using cfiCommon1
        CFI (cfiPicker29) NoFunction
        CFI (cfiPicker29) Picker
        INC     DPTR
        CFI EndBlock cfiCond26
        CFI EndBlock cfiCond27
        CFI EndBlock cfiCond28
        CFI EndBlock cfiPicker29
        REQUIRE ??Subroutine10_0
        ; // Fall through to label ??Subroutine10_0

        RSEG BANKED_CODE:CODE:NOROOT(0)
??Subroutine10_0:
        CFI Block cfiCond30 Using cfiCommon0
        CFI NoFunction
        CFI Conditional ??CrossCallReturnLabel_18
        CFI R6 load(1, XDATA, add(CFA_XSP16, literal(-12)))
        CFI VB load(1, XDATA, add(CFA_XSP16, literal(-11)))
        CFI V0 load(1, XDATA, add(CFA_XSP16, literal(-10)))
        CFI V1 load(1, XDATA, add(CFA_XSP16, literal(-9)))
        CFI V2 load(1, XDATA, add(CFA_XSP16, literal(-8)))
        CFI V3 load(1, XDATA, add(CFA_XSP16, literal(-7)))
        CFI R7 load(1, XDATA, add(CFA_XSP16, literal(-6)))
        CFI ?RET_LOW load(1, XDATA, add(CFA_XSP16, literal(-5)))
        CFI ?RET_HIGH load(1, XDATA, add(CFA_XSP16, literal(-4)))
        CFI ?BRET_EXT load(1, XDATA, add(CFA_XSP16, literal(-3)))
        CFI DPL0 load(1, XDATA, add(CFA_XSP16, literal(-2)))
        CFI DPH0 load(1, XDATA, add(CFA_XSP16, literal(-1)))
        CFI CFA_SP SP+0
        CFI CFA_XSP16 add(XSP16, 13)
        CFI Block cfiCond31 Using cfiCommon0
        CFI (cfiCond31) NoFunction
        CFI (cfiCond31) Conditional ??CrossCallReturnLabel_19
        CFI (cfiCond31) R6 load(1, XDATA, add(CFA_XSP16, literal(-12)))
        CFI (cfiCond31) VB load(1, XDATA, add(CFA_XSP16, literal(-11)))
        CFI (cfiCond31) V0 load(1, XDATA, add(CFA_XSP16, literal(-10)))
        CFI (cfiCond31) V1 load(1, XDATA, add(CFA_XSP16, literal(-9)))
        CFI (cfiCond31) V2 load(1, XDATA, add(CFA_XSP16, literal(-8)))
        CFI (cfiCond31) V3 load(1, XDATA, add(CFA_XSP16, literal(-7)))
        CFI (cfiCond31) R7 load(1, XDATA, add(CFA_XSP16, literal(-6)))
        CFI (cfiCond31) ?RET_LOW load(1, XDATA, add(CFA_XSP16, literal(-5)))
        CFI (cfiCond31) ?RET_HIGH load(1, XDATA, add(CFA_XSP16, literal(-4)))
        CFI (cfiCond31) ?BRET_EXT load(1, XDATA, add(CFA_XSP16, literal(-3)))
        CFI (cfiCond31) DPL0 load(1, XDATA, add(CFA_XSP16, literal(-2)))
        CFI (cfiCond31) DPH0 load(1, XDATA, add(CFA_XSP16, literal(-1)))
        CFI (cfiCond31) CFA_SP SP+0
        CFI (cfiCond31) CFA_XSP16 add(XSP16, 13)
        CFI Block cfiCond32 Using cfiCommon0
        CFI (cfiCond32) NoFunction
        CFI (cfiCond32) Conditional ??CrossCallReturnLabel_20, ??CrossCallReturnLabel_11
        CFI (cfiCond32) R6 load(1, XDATA, add(CFA_XSP16, literal(-12)))
        CFI (cfiCond32) VB load(1, XDATA, add(CFA_XSP16, literal(-11)))
        CFI (cfiCond32) V0 load(1, XDATA, add(CFA_XSP16, literal(-10)))
        CFI (cfiCond32) V1 load(1, XDATA, add(CFA_XSP16, literal(-9)))
        CFI (cfiCond32) V2 load(1, XDATA, add(CFA_XSP16, literal(-8)))
        CFI (cfiCond32) V3 load(1, XDATA, add(CFA_XSP16, literal(-7)))
        CFI (cfiCond32) R7 load(1, XDATA, add(CFA_XSP16, literal(-6)))
        CFI (cfiCond32) ?RET_LOW load(1, XDATA, add(CFA_XSP16, literal(-5)))
        CFI (cfiCond32) ?RET_HIGH load(1, XDATA, add(CFA_XSP16, literal(-4)))
        CFI (cfiCond32) ?BRET_EXT load(1, XDATA, add(CFA_XSP16, literal(-3)))
        CFI (cfiCond32) DPL0 load(1, XDATA, add(CFA_XSP16, literal(-2)))
        CFI (cfiCond32) DPH0 load(1, XDATA, add(CFA_XSP16, literal(-1)))
        CFI (cfiCond32) CFA_SP SP+0
        CFI (cfiCond32) CFA_XSP16 add(XSP16, 13)
        CFI Block cfiCond33 Using cfiCommon0
        CFI (cfiCond33) NoFunction
        CFI (cfiCond33) Conditional ??CrossCallReturnLabel_20, ??CrossCallReturnLabel_12
        CFI (cfiCond33) R6 load(1, XDATA, add(CFA_XSP16, literal(-12)))
        CFI (cfiCond33) VB load(1, XDATA, add(CFA_XSP16, literal(-11)))
        CFI (cfiCond33) V0 load(1, XDATA, add(CFA_XSP16, literal(-10)))
        CFI (cfiCond33) V1 load(1, XDATA, add(CFA_XSP16, literal(-9)))
        CFI (cfiCond33) V2 load(1, XDATA, add(CFA_XSP16, literal(-8)))
        CFI (cfiCond33) V3 load(1, XDATA, add(CFA_XSP16, literal(-7)))
        CFI (cfiCond33) R7 load(1, XDATA, add(CFA_XSP16, literal(-6)))
        CFI (cfiCond33) ?RET_LOW load(1, XDATA, add(CFA_XSP16, literal(-5)))
        CFI (cfiCond33) ?RET_HIGH load(1, XDATA, add(CFA_XSP16, literal(-4)))
        CFI (cfiCond33) ?BRET_EXT load(1, XDATA, add(CFA_XSP16, literal(-3)))
        CFI (cfiCond33) DPL0 load(1, XDATA, add(CFA_XSP16, literal(-2)))
        CFI (cfiCond33) DPH0 load(1, XDATA, add(CFA_XSP16, literal(-1)))
        CFI (cfiCond33) CFA_SP SP+0
        CFI (cfiCond33) CFA_XSP16 add(XSP16, 13)
        CFI Block cfiPicker34 Using cfiCommon1
        CFI (cfiPicker34) NoFunction
        CFI (cfiPicker34) Picker
        MOVX    @DPTR,A
        MOV     DPL,R6
        MOV     DPH,R7
        INC     DPTR
        RET
        CFI EndBlock cfiCond30
        CFI EndBlock cfiCond31
        CFI EndBlock cfiCond32
        CFI EndBlock cfiCond33
        CFI EndBlock cfiPicker34
//  516 
//  517 
//  518 
//  519 
//  520 
//  521 
//  522 
//  523 #define RFID_UART 0 //1
//  524 
//  525 
//  526 /*UART0通信初始化
//  527 -------------------------------------------------------*/

        RSEG BANKED_CODE:CODE:NOROOT(0)
//  528 void rfid_uart_init(void)
rfid_uart_init:
        CFI Block cfiBlock35 Using cfiCommon0
        CFI Function rfid_uart_init
//  529 {
        ; Saved register size: 0
        ; Auto size: 0
//  530 #if 1
//  531    P0SEL |=  0x0C;                  //初始化UART0端口
        ORL     0xf3,#0xc
        MOV     A,0xf3
//  532    PERCFG&= ~0x01;                  //选择UART0为可选位置一
        ANL     0xf1,#0xfe
//  533 #else
//  534    PERCFG |= 0x01;
//  535    P1SEL |= 0xc0;
//  536 #endif
//  537    U0UCR = 0;                       //设置停止位与奇偶校验 
        MOV     0xc4,#0x0
//  538    U0CSR = 0xC0;                    //设置为UART模式,而且使能接受器
        MOV     0x86,#-0x40
//  539    
//  540    U0GCR = 11;
        MOV     0xc5,#0xb
//  541    U0BAUD = 216;                    //设置UART0波特率为115200bps
        MOV     0xc2,#-0x28
//  542   
//  543 }
        LJMP    ?BRET
        CFI EndBlock cfiBlock35
        REQUIRE U0CSR
        REQUIRE U0BAUD
        REQUIRE U0UCR
        REQUIRE U0GCR
        REQUIRE PERCFG
        REQUIRE P0SEL
//  544 /*UART0发送数据
//  545 -------------------------------------------------------*/

        RSEG BANKED_CODE:CODE:NOROOT(0)
//  546 void  rfid_uart_send(unsigned char data)
rfid_uart_send:
        CFI Block cfiBlock36 Using cfiCommon0
        CFI Function rfid_uart_send
//  547 {
        ; Saved register size: 0
        ; Auto size: 0
//  548   U0DBUF = data;
        MOV     0xc1,R1
//  549   while(!UTX0IF);    //等待UART空闲时发送数据
??rfid_uart_send_0:
        MOV     C,0xe8.1
        JNC     ??rfid_uart_send_0
//  550   UTX0IF = 0;
        CLR     0xe8.1
//  551 }
        LJMP    ?BRET
        CFI EndBlock cfiBlock36
        REQUIRE U0DBUF
        REQUIRE _A_IRCON2
//  552 

        RSEG BANKED_CODE:CODE:NOROOT(0)
//  553 int rfid_uart_recv(void)
rfid_uart_recv:
        CFI Block cfiBlock37 Using cfiCommon0
        CFI Function rfid_uart_recv
//  554 {
        ; Saved register size: 2
        ; Auto size: 0
//  555   int data = -1;
        MOV     R2,#-0x1
        MOV     R3,#-0x1
//  556   unsigned int i=50000;
        MOV     R0,#0x50
        MOV     R1,#-0x3d
        SJMP    ??rfid_uart_recv_0
//  557   while (!URX0IF && --i) { }//查询是否收到数据，否则继续等待
??rfid_uart_recv_1:
        ADD     A,#-0x1
        DEC     R0
        MOV     A,R1
        ADDC    A,#-0x1
        MOV     R1,A
        MOV     A,R0
        JNZ     ??rfid_uart_recv_2
        MOV     A,R1
??rfid_uart_recv_2:
        JZ      ??rfid_uart_recv_3
??rfid_uart_recv_0:
        MOV     C,0x88.3
        MOV     A,R0
        JNC     ??rfid_uart_recv_1
//  558   if ( i > 0 ) {
        JNZ     ??rfid_uart_recv_4
        MOV     A,R1
??rfid_uart_recv_4:
        JZ      ??rfid_uart_recv_3
//  559     data = 0xff & U0DBUF;          //提取接收到的数据
        MOV     R2,0xc1
        INC     R3
//  560     URX0IF = 0;
        CLR     0x88.3
//  561   }
//  562   return data;          
??rfid_uart_recv_3:
        LJMP    ?BRET
        CFI EndBlock cfiBlock37
        REQUIRE _A_TCON
        REQUIRE U0DBUF
//  563 }
//  564 

        RSEG BANKED_CODE:CODE:NOROOT(0)
//  565 void rfid_commands(char *cmd, int len)
rfid_commands:
        CFI Block cfiBlock38 Using cfiCommon0
        CFI Function rfid_commands
//  566 {
        FUNCALL rfid_commands, rfid_uart_send
        LOCFRAME ISTACK, 0, STACK
        LOCFRAME PSTACK, 0, STACK
        LOCFRAME XSTACK, 12, STACK
        LOCFRAME IOVERLAY, 0, STATIC
        LOCFRAME DOVERLAY, 0, STATIC
        ARGFRAME ISTACK, 0, STACK
        ARGFRAME PSTACK, 0, STACK
        ARGFRAME XSTACK, 12, STACK
        ARGFRAME IOVERLAY, 0, STATIC
        ARGFRAME DOVERLAY, 0, STATIC
        MOV     A,#-0xc
        LCALL   ?BANKED_ENTER_XDATA
        CFI DPH0 load(1, XDATA, add(CFA_XSP16, literal(-1)))
        CFI DPL0 load(1, XDATA, add(CFA_XSP16, literal(-2)))
        CFI ?BRET_EXT load(1, XDATA, add(CFA_XSP16, literal(-3)))
        CFI ?RET_HIGH load(1, XDATA, add(CFA_XSP16, literal(-4)))
        CFI ?RET_LOW load(1, XDATA, add(CFA_XSP16, literal(-5)))
        CFI R7 load(1, XDATA, add(CFA_XSP16, literal(-6)))
        CFI V3 load(1, XDATA, add(CFA_XSP16, literal(-7)))
        CFI V2 load(1, XDATA, add(CFA_XSP16, literal(-8)))
        CFI V1 load(1, XDATA, add(CFA_XSP16, literal(-9)))
        CFI V0 load(1, XDATA, add(CFA_XSP16, literal(-10)))
        CFI VB load(1, XDATA, add(CFA_XSP16, literal(-11)))
        CFI R6 load(1, XDATA, add(CFA_XSP16, literal(-12)))
        CFI CFA_SP SP+0
        CFI CFA_XSP16 add(XSP16, 12)
        ; Saved register size: 12
        ; Auto size: 0
        MOV     A,R2
        MOV     R6,A
        MOV     A,R3
        MOV     R7,A
        MOV     ?V0 + 0,R4
        MOV     ?V0 + 1,R5
//  567   int i;
//  568   for (i=0; i<len; i++)
        MOV     ?V0 + 2,#0x0
        MOV     ?V0 + 3,#0x0
        SJMP    ??rfid_commands_0
//  569     rfid_uart_send(cmd[i]);
??rfid_commands_1:
        ; Setup parameters for call to function rfid_uart_send
        MOV     A,R6
        ADD     A,?V0 + 2
        MOV     DPL,A
        MOV     A,R7
        ADDC    A,?V0 + 3
        MOV     DPH,A
        MOVX    A,@DPTR
        MOV     R1,A
        LCALL   ??rfid_uart_send?relay
        MOV     A,?V0 + 2
        ADD     A,#0x1
        MOV     ?V0 + 2,A
        MOV     A,?V0 + 3
        ADDC    A,#0x0
        MOV     ?V0 + 3,A
??rfid_commands_0:
        CLR     C
        MOV     A,?V0 + 2
        SUBB    A,?V0 + 0
        MOV     A,?V0 + 3
        SUBB    A,?V0 + 1
        MOV     C,0xD0 /* PSW */.2
        XRL     A,PSW
        RLC     A
        JC      ??rfid_commands_1
//  570 }
        LJMP    ?Subroutine2 & 0xFFFF
        CFI EndBlock cfiBlock38
//  571 

        RSEG BANKED_CODE:CODE:NOROOT(0)
//  572 char datxor(char *dat, int len)
datxor:
        CFI Block cfiBlock39 Using cfiCommon0
        CFI Function datxor
//  573 {
        MOV     A,#-0xa
        LCALL   ?BANKED_ENTER_XDATA
        CFI DPH0 load(1, XDATA, add(CFA_XSP16, literal(-1)))
        CFI DPL0 load(1, XDATA, add(CFA_XSP16, literal(-2)))
        CFI ?BRET_EXT load(1, XDATA, add(CFA_XSP16, literal(-3)))
        CFI ?RET_HIGH load(1, XDATA, add(CFA_XSP16, literal(-4)))
        CFI ?RET_LOW load(1, XDATA, add(CFA_XSP16, literal(-5)))
        CFI R7 load(1, XDATA, add(CFA_XSP16, literal(-6)))
        CFI V1 load(1, XDATA, add(CFA_XSP16, literal(-7)))
        CFI V0 load(1, XDATA, add(CFA_XSP16, literal(-8)))
        CFI VB load(1, XDATA, add(CFA_XSP16, literal(-9)))
        CFI R6 load(1, XDATA, add(CFA_XSP16, literal(-10)))
        CFI CFA_SP SP+0
        CFI CFA_XSP16 add(XSP16, 10)
        ; Saved register size: 10
        ; Auto size: 0
//  574   char x = 'X';
        MOV     R1,#0x58
//  575   char i;
//  576   for (i=0; i<len; i++) {
        MOV     R6,#0x0
        SJMP    ??datxor_0
//  577     x ^= dat[i];
??datxor_1:
        MOV     A,R2
        ADD     A,?V0 + 0
        MOV     DPL,A
        MOV     A,R3
        ADDC    A,#0x0
        MOV     DPH,A
        MOVX    A,@DPTR
        XCH     A,R1
        XRL     A,R1
        MOV     R1,A
//  578   }
        INC     R6
??datxor_0:
        MOV     ?V0 + 0,R6
        CLR     C
        MOV     A,?V0 + 0
        SUBB    A,R4
        CLR     A
        SUBB    A,R5
        MOV     C,0xD0 /* PSW */.2
        XRL     A,PSW
        RLC     A
        JC      ??datxor_1
//  579   return x;
        LJMP    ?Subroutine0 & 0xFFFF
        CFI EndBlock cfiBlock39
//  580 }
//  581 

        RSEG XDATA_Z:XDATA:NOROOT(0)
//  582 char cmd[16];
cmd:
        DS 16
        REQUIRE __INIT_XDATA_Z

        RSEG XDATA_Z:XDATA:NOROOT(0)
//  583 char dat[32];
dat:
        DS 32
        REQUIRE __INIT_XDATA_Z

        RSEG BANKED_CODE:CODE:NOROOT(0)
//  584 int rfid_id(char *id)
rfid_id:
        CFI Block cfiBlock40 Using cfiCommon0
        CFI Function rfid_id
//  585 {
        FUNCALL rfid_id, rfid_commands
        LOCFRAME ISTACK, 0, STACK
        LOCFRAME PSTACK, 0, STACK
        LOCFRAME XSTACK, 9, STACK
        LOCFRAME IOVERLAY, 0, STATIC
        LOCFRAME DOVERLAY, 0, STATIC
        ARGFRAME ISTACK, 0, STACK
        ARGFRAME PSTACK, 0, STACK
        ARGFRAME XSTACK, 9, STACK
        ARGFRAME IOVERLAY, 0, STATIC
        ARGFRAME DOVERLAY, 0, STATIC
        FUNCALL rfid_id, rfid_uart_recv
        LOCFRAME ISTACK, 0, STACK
        LOCFRAME PSTACK, 0, STACK
        LOCFRAME XSTACK, 9, STACK
        LOCFRAME IOVERLAY, 0, STATIC
        LOCFRAME DOVERLAY, 0, STATIC
        ARGFRAME ISTACK, 0, STACK
        ARGFRAME PSTACK, 0, STACK
        ARGFRAME XSTACK, 9, STACK
        ARGFRAME IOVERLAY, 0, STATIC
        ARGFRAME DOVERLAY, 0, STATIC
        FUNCALL rfid_id, rfid_uart_recv
        LOCFRAME ISTACK, 0, STACK
        LOCFRAME PSTACK, 0, STACK
        LOCFRAME XSTACK, 9, STACK
        LOCFRAME IOVERLAY, 0, STATIC
        LOCFRAME DOVERLAY, 0, STATIC
        ARGFRAME ISTACK, 0, STACK
        ARGFRAME PSTACK, 0, STACK
        ARGFRAME XSTACK, 9, STACK
        ARGFRAME IOVERLAY, 0, STATIC
        ARGFRAME DOVERLAY, 0, STATIC
        FUNCALL rfid_id, rfid_uart_recv
        LOCFRAME ISTACK, 0, STACK
        LOCFRAME PSTACK, 0, STACK
        LOCFRAME XSTACK, 9, STACK
        LOCFRAME IOVERLAY, 0, STATIC
        LOCFRAME DOVERLAY, 0, STATIC
        ARGFRAME ISTACK, 0, STACK
        ARGFRAME PSTACK, 0, STACK
        ARGFRAME XSTACK, 9, STACK
        ARGFRAME IOVERLAY, 0, STATIC
        ARGFRAME DOVERLAY, 0, STATIC
        FUNCALL rfid_id, rfid_uart_recv
        LOCFRAME ISTACK, 0, STACK
        LOCFRAME PSTACK, 0, STACK
        LOCFRAME XSTACK, 9, STACK
        LOCFRAME IOVERLAY, 0, STATIC
        LOCFRAME DOVERLAY, 0, STATIC
        ARGFRAME ISTACK, 0, STACK
        ARGFRAME PSTACK, 0, STACK
        ARGFRAME XSTACK, 9, STACK
        ARGFRAME IOVERLAY, 0, STATIC
        ARGFRAME DOVERLAY, 0, STATIC
        FUNCALL rfid_id, rfid_uart_recv
        LOCFRAME ISTACK, 0, STACK
        LOCFRAME PSTACK, 0, STACK
        LOCFRAME XSTACK, 9, STACK
        LOCFRAME IOVERLAY, 0, STATIC
        LOCFRAME DOVERLAY, 0, STATIC
        ARGFRAME ISTACK, 0, STACK
        ARGFRAME PSTACK, 0, STACK
        ARGFRAME XSTACK, 9, STACK
        ARGFRAME IOVERLAY, 0, STATIC
        ARGFRAME DOVERLAY, 0, STATIC
        FUNCALL rfid_id, rfid_uart_recv
        LOCFRAME ISTACK, 0, STACK
        LOCFRAME PSTACK, 0, STACK
        LOCFRAME XSTACK, 9, STACK
        LOCFRAME IOVERLAY, 0, STATIC
        LOCFRAME DOVERLAY, 0, STATIC
        ARGFRAME ISTACK, 0, STACK
        ARGFRAME PSTACK, 0, STACK
        ARGFRAME XSTACK, 9, STACK
        ARGFRAME IOVERLAY, 0, STATIC
        ARGFRAME DOVERLAY, 0, STATIC
        FUNCALL rfid_id, rfid_uart_recv
        LOCFRAME ISTACK, 0, STACK
        LOCFRAME PSTACK, 0, STACK
        LOCFRAME XSTACK, 9, STACK
        LOCFRAME IOVERLAY, 0, STATIC
        LOCFRAME DOVERLAY, 0, STATIC
        ARGFRAME ISTACK, 0, STACK
        ARGFRAME PSTACK, 0, STACK
        ARGFRAME XSTACK, 9, STACK
        ARGFRAME IOVERLAY, 0, STATIC
        ARGFRAME DOVERLAY, 0, STATIC
        FUNCALL rfid_id, rfid_uart_recv
        LOCFRAME ISTACK, 0, STACK
        LOCFRAME PSTACK, 0, STACK
        LOCFRAME XSTACK, 9, STACK
        LOCFRAME IOVERLAY, 0, STATIC
        LOCFRAME DOVERLAY, 0, STATIC
        ARGFRAME ISTACK, 0, STACK
        ARGFRAME PSTACK, 0, STACK
        ARGFRAME XSTACK, 9, STACK
        ARGFRAME IOVERLAY, 0, STATIC
        ARGFRAME DOVERLAY, 0, STATIC
        FUNCALL rfid_id, rfid_uart_recv
        LOCFRAME ISTACK, 0, STACK
        LOCFRAME PSTACK, 0, STACK
        LOCFRAME XSTACK, 9, STACK
        LOCFRAME IOVERLAY, 0, STATIC
        LOCFRAME DOVERLAY, 0, STATIC
        ARGFRAME ISTACK, 0, STACK
        ARGFRAME PSTACK, 0, STACK
        ARGFRAME XSTACK, 9, STACK
        ARGFRAME IOVERLAY, 0, STATIC
        ARGFRAME DOVERLAY, 0, STATIC
        FUNCALL rfid_id, datxor
        LOCFRAME ISTACK, 0, STACK
        LOCFRAME PSTACK, 0, STACK
        LOCFRAME XSTACK, 9, STACK
        LOCFRAME IOVERLAY, 0, STATIC
        LOCFRAME DOVERLAY, 0, STATIC
        ARGFRAME ISTACK, 0, STACK
        ARGFRAME PSTACK, 0, STACK
        ARGFRAME XSTACK, 9, STACK
        ARGFRAME IOVERLAY, 0, STATIC
        ARGFRAME DOVERLAY, 0, STATIC
        MOV     A,#-0x9
        LCALL   ?BANKED_ENTER_XDATA
        CFI DPH0 load(1, XDATA, add(CFA_XSP16, literal(-1)))
        CFI DPL0 load(1, XDATA, add(CFA_XSP16, literal(-2)))
        CFI ?BRET_EXT load(1, XDATA, add(CFA_XSP16, literal(-3)))
        CFI ?RET_HIGH load(1, XDATA, add(CFA_XSP16, literal(-4)))
        CFI ?RET_LOW load(1, XDATA, add(CFA_XSP16, literal(-5)))
        CFI R7 load(1, XDATA, add(CFA_XSP16, literal(-6)))
        CFI V0 load(1, XDATA, add(CFA_XSP16, literal(-7)))
        CFI VB load(1, XDATA, add(CFA_XSP16, literal(-8)))
        CFI R6 load(1, XDATA, add(CFA_XSP16, literal(-9)))
        CFI CFA_SP SP+0
        CFI CFA_XSP16 add(XSP16, 9)
        ; Saved register size: 9
        ; Auto size: 0
        MOV     A,R2
        MOV     R6,A
        MOV     A,R3
        MOV     R7,A
//  586   
//  587   char idx = 0;
//  588   cmd[0] = 0x02, cmd[1] = 0x00, cmd[2] = 0x02;
        MOV     A,#0x2
        MOV     DPTR,#cmd
        MOVX    @DPTR,A
        CLR     A
        MOV     DPTR,#(cmd + 1)
        MOVX    @DPTR,A
        MOV     A,#0x2
        MOV     DPTR,#(cmd + 2)
        MOVX    @DPTR,A
//  589   rfid_commands(cmd, 3);
        ; Setup parameters for call to function rfid_commands
        MOV     R4,#0x3
        MOV     R5,#0x0
        MOV     R2,#(cmd & 0xff)
        MOV     R3,#((cmd >> 8) & 0xff)
        LCALL   ??rfid_commands?relay
//  590   
//  591   dat[idx++] = rfid_uart_recv();
        ; Setup parameters for call to function rfid_uart_recv
        LCALL   ??rfid_uart_recv?relay
        MOV     A,R2
        MOV     DPTR,#dat
        LCALL   ?Subroutine4 & 0xFFFF
//  592   dat[idx++] = rfid_uart_recv();
??CrossCallReturnLabel_2:
        MOV     DPTR,#(dat + 1)
        LCALL   ?Subroutine4 & 0xFFFF
//  593   dat[idx++] = rfid_uart_recv();
??CrossCallReturnLabel_3:
        MOV     DPTR,#(dat + 2)
        MOVX    @DPTR,A
//  594   if (dat[0]!=0x02 || dat[1]!=0x00 || dat[2]!=0x00){
        MOV     DPTR,#dat
        MOVX    A,@DPTR
        XRL     A,#0x2
        JNZ     ??rfid_id_0
        MOV     DPTR,#(dat + 1)
        MOVX    A,@DPTR
        JNZ     ??rfid_id_0
        MOV     DPTR,#(dat + 2)
        MOVX    A,@DPTR
        JZ      ??rfid_id_1
//  595     dat[idx++] = rfid_uart_recv(); // ck
??rfid_id_0:
        ; Setup parameters for call to function rfid_uart_recv
        LCALL   ??rfid_uart_recv?relay
        MOV     A,R2
        MOV     DPTR,#(dat + 3)
        MOVX    @DPTR,A
//  596     return 0;
??rfid_id_2:
        MOV     R2,#0x0
        SJMP    ??rfid_id_3
//  597   }
//  598   dat[idx++] = rfid_uart_recv();
??rfid_id_1:
        ; Setup parameters for call to function rfid_uart_recv
        LCALL   ??rfid_uart_recv?relay
        MOV     A,R2
        MOV     DPTR,#(dat + 3)
        LCALL   ?Subroutine4 & 0xFFFF
//  599   dat[idx++] = rfid_uart_recv();
??CrossCallReturnLabel_4:
        MOV     DPTR,#(dat + 4)
        LCALL   ?Subroutine4 & 0xFFFF
//  600   dat[idx++] = rfid_uart_recv();
??CrossCallReturnLabel_5:
        MOV     DPTR,#(dat + 5)
        LCALL   ?Subroutine4 & 0xFFFF
//  601   dat[idx++] = rfid_uart_recv();
??CrossCallReturnLabel_6:
        MOV     DPTR,#(dat + 6)
        LCALL   ?Subroutine4 & 0xFFFF
//  602   
//  603   dat[idx++] = rfid_uart_recv();
??CrossCallReturnLabel_7:
        MOV     DPTR,#(dat + 7)
        MOVX    @DPTR,A
//  604 
//  605   if (datxor(dat, idx)) {
        ; Setup parameters for call to function datxor
        MOV     R4,#0x8
        MOV     R5,#0x0
        MOV     R2,#(dat & 0xff)
        MOV     R3,#((dat >> 8) & 0xff)
        LCALL   ??datxor?relay
        MOV     A,R1
        JNZ     ??rfid_id_2
//  606     return 0;
//  607   }
//  608   if (id != NULL) {
        MOV     A,R6
        JNZ     ??rfid_id_4
        MOV     A,R7
??rfid_id_4:
        JZ      ??rfid_id_5
//  609     id[0] = dat[3];
        MOV     DPTR,#(dat + 3)
        MOVX    A,@DPTR
        MOV     DPL,R6
        MOV     DPH,R7
        MOVX    @DPTR,A
//  610     id[1] = dat[4];
        MOV     DPTR,#(dat + 4)
        LCALL   ?Subroutine5 & 0xFFFF
??CrossCallReturnLabel_8:
        MOVX    @DPTR,A
//  611     id[2] = dat[5];
        MOV     DPTR,#(dat + 5)
        LCALL   ?Subroutine5 & 0xFFFF
??CrossCallReturnLabel_9:
        INC     DPTR
        MOVX    @DPTR,A
//  612     id[3] = dat[6];
        MOV     DPTR,#(dat + 6)
        LCALL   ?Subroutine5 & 0xFFFF
//  613   }
??CrossCallReturnLabel_10:
        INC     DPTR
        INC     DPTR
        MOVX    @DPTR,A
//  614   return 1;
??rfid_id_5:
        MOV     R2,#0x1
??rfid_id_3:
        MOV     R3,#0x0
        LJMP    ?Subroutine1 & 0xFFFF
        CFI EndBlock cfiBlock40
//  615 }

        RSEG BANKED_CODE:CODE:NOROOT(0)
?Subroutine5:
        CFI Block cfiCond41 Using cfiCommon0
        CFI NoFunction
        CFI Conditional ??CrossCallReturnLabel_8
        CFI R6 load(1, XDATA, add(CFA_XSP16, literal(-9)))
        CFI VB load(1, XDATA, add(CFA_XSP16, literal(-8)))
        CFI V0 load(1, XDATA, add(CFA_XSP16, literal(-7)))
        CFI R7 load(1, XDATA, add(CFA_XSP16, literal(-6)))
        CFI ?RET_LOW load(1, XDATA, add(CFA_XSP16, literal(-5)))
        CFI ?RET_HIGH load(1, XDATA, add(CFA_XSP16, literal(-4)))
        CFI ?BRET_EXT load(1, XDATA, add(CFA_XSP16, literal(-3)))
        CFI DPL0 load(1, XDATA, add(CFA_XSP16, literal(-2)))
        CFI DPH0 load(1, XDATA, add(CFA_XSP16, literal(-1)))
        CFI CFA_SP SP+0
        CFI CFA_XSP16 add(XSP16, 9)
        CFI Block cfiCond42 Using cfiCommon0
        CFI (cfiCond42) NoFunction
        CFI (cfiCond42) Conditional ??CrossCallReturnLabel_9
        CFI (cfiCond42) R6 load(1, XDATA, add(CFA_XSP16, literal(-9)))
        CFI (cfiCond42) VB load(1, XDATA, add(CFA_XSP16, literal(-8)))
        CFI (cfiCond42) V0 load(1, XDATA, add(CFA_XSP16, literal(-7)))
        CFI (cfiCond42) R7 load(1, XDATA, add(CFA_XSP16, literal(-6)))
        CFI (cfiCond42) ?RET_LOW load(1, XDATA, add(CFA_XSP16, literal(-5)))
        CFI (cfiCond42) ?RET_HIGH load(1, XDATA, add(CFA_XSP16, literal(-4)))
        CFI (cfiCond42) ?BRET_EXT load(1, XDATA, add(CFA_XSP16, literal(-3)))
        CFI (cfiCond42) DPL0 load(1, XDATA, add(CFA_XSP16, literal(-2)))
        CFI (cfiCond42) DPH0 load(1, XDATA, add(CFA_XSP16, literal(-1)))
        CFI (cfiCond42) CFA_SP SP+0
        CFI (cfiCond42) CFA_XSP16 add(XSP16, 9)
        CFI Block cfiCond43 Using cfiCommon0
        CFI (cfiCond43) NoFunction
        CFI (cfiCond43) Conditional ??CrossCallReturnLabel_10
        CFI (cfiCond43) R6 load(1, XDATA, add(CFA_XSP16, literal(-9)))
        CFI (cfiCond43) VB load(1, XDATA, add(CFA_XSP16, literal(-8)))
        CFI (cfiCond43) V0 load(1, XDATA, add(CFA_XSP16, literal(-7)))
        CFI (cfiCond43) R7 load(1, XDATA, add(CFA_XSP16, literal(-6)))
        CFI (cfiCond43) ?RET_LOW load(1, XDATA, add(CFA_XSP16, literal(-5)))
        CFI (cfiCond43) ?RET_HIGH load(1, XDATA, add(CFA_XSP16, literal(-4)))
        CFI (cfiCond43) ?BRET_EXT load(1, XDATA, add(CFA_XSP16, literal(-3)))
        CFI (cfiCond43) DPL0 load(1, XDATA, add(CFA_XSP16, literal(-2)))
        CFI (cfiCond43) DPH0 load(1, XDATA, add(CFA_XSP16, literal(-1)))
        CFI (cfiCond43) CFA_SP SP+0
        CFI (cfiCond43) CFA_XSP16 add(XSP16, 9)
        CFI Block cfiPicker44 Using cfiCommon1
        CFI (cfiPicker44) NoFunction
        CFI (cfiPicker44) Picker
        MOVX    A,@DPTR
        MOV     DPL,R6
        MOV     DPH,R7
        INC     DPTR
        RET
        CFI EndBlock cfiCond41
        CFI EndBlock cfiCond42
        CFI EndBlock cfiCond43
        CFI EndBlock cfiPicker44

        RSEG BANKED_CODE:CODE:NOROOT(0)
?Subroutine4:
        CFI Block cfiCond45 Using cfiCommon0
        CFI NoFunction
        CFI Conditional ??CrossCallReturnLabel_2
        CFI R6 load(1, XDATA, add(CFA_XSP16, literal(-9)))
        CFI VB load(1, XDATA, add(CFA_XSP16, literal(-8)))
        CFI V0 load(1, XDATA, add(CFA_XSP16, literal(-7)))
        CFI R7 load(1, XDATA, add(CFA_XSP16, literal(-6)))
        CFI ?RET_LOW load(1, XDATA, add(CFA_XSP16, literal(-5)))
        CFI ?RET_HIGH load(1, XDATA, add(CFA_XSP16, literal(-4)))
        CFI ?BRET_EXT load(1, XDATA, add(CFA_XSP16, literal(-3)))
        CFI DPL0 load(1, XDATA, add(CFA_XSP16, literal(-2)))
        CFI DPH0 load(1, XDATA, add(CFA_XSP16, literal(-1)))
        CFI CFA_SP SP+0
        CFI CFA_XSP16 add(XSP16, 9)
        CFI Block cfiCond46 Using cfiCommon0
        CFI (cfiCond46) NoFunction
        CFI (cfiCond46) Conditional ??CrossCallReturnLabel_3
        CFI (cfiCond46) R6 load(1, XDATA, add(CFA_XSP16, literal(-9)))
        CFI (cfiCond46) VB load(1, XDATA, add(CFA_XSP16, literal(-8)))
        CFI (cfiCond46) V0 load(1, XDATA, add(CFA_XSP16, literal(-7)))
        CFI (cfiCond46) R7 load(1, XDATA, add(CFA_XSP16, literal(-6)))
        CFI (cfiCond46) ?RET_LOW load(1, XDATA, add(CFA_XSP16, literal(-5)))
        CFI (cfiCond46) ?RET_HIGH load(1, XDATA, add(CFA_XSP16, literal(-4)))
        CFI (cfiCond46) ?BRET_EXT load(1, XDATA, add(CFA_XSP16, literal(-3)))
        CFI (cfiCond46) DPL0 load(1, XDATA, add(CFA_XSP16, literal(-2)))
        CFI (cfiCond46) DPH0 load(1, XDATA, add(CFA_XSP16, literal(-1)))
        CFI (cfiCond46) CFA_SP SP+0
        CFI (cfiCond46) CFA_XSP16 add(XSP16, 9)
        CFI Block cfiCond47 Using cfiCommon0
        CFI (cfiCond47) NoFunction
        CFI (cfiCond47) Conditional ??CrossCallReturnLabel_4
        CFI (cfiCond47) R6 load(1, XDATA, add(CFA_XSP16, literal(-9)))
        CFI (cfiCond47) VB load(1, XDATA, add(CFA_XSP16, literal(-8)))
        CFI (cfiCond47) V0 load(1, XDATA, add(CFA_XSP16, literal(-7)))
        CFI (cfiCond47) R7 load(1, XDATA, add(CFA_XSP16, literal(-6)))
        CFI (cfiCond47) ?RET_LOW load(1, XDATA, add(CFA_XSP16, literal(-5)))
        CFI (cfiCond47) ?RET_HIGH load(1, XDATA, add(CFA_XSP16, literal(-4)))
        CFI (cfiCond47) ?BRET_EXT load(1, XDATA, add(CFA_XSP16, literal(-3)))
        CFI (cfiCond47) DPL0 load(1, XDATA, add(CFA_XSP16, literal(-2)))
        CFI (cfiCond47) DPH0 load(1, XDATA, add(CFA_XSP16, literal(-1)))
        CFI (cfiCond47) CFA_SP SP+0
        CFI (cfiCond47) CFA_XSP16 add(XSP16, 9)
        CFI Block cfiCond48 Using cfiCommon0
        CFI (cfiCond48) NoFunction
        CFI (cfiCond48) Conditional ??CrossCallReturnLabel_5
        CFI (cfiCond48) R6 load(1, XDATA, add(CFA_XSP16, literal(-9)))
        CFI (cfiCond48) VB load(1, XDATA, add(CFA_XSP16, literal(-8)))
        CFI (cfiCond48) V0 load(1, XDATA, add(CFA_XSP16, literal(-7)))
        CFI (cfiCond48) R7 load(1, XDATA, add(CFA_XSP16, literal(-6)))
        CFI (cfiCond48) ?RET_LOW load(1, XDATA, add(CFA_XSP16, literal(-5)))
        CFI (cfiCond48) ?RET_HIGH load(1, XDATA, add(CFA_XSP16, literal(-4)))
        CFI (cfiCond48) ?BRET_EXT load(1, XDATA, add(CFA_XSP16, literal(-3)))
        CFI (cfiCond48) DPL0 load(1, XDATA, add(CFA_XSP16, literal(-2)))
        CFI (cfiCond48) DPH0 load(1, XDATA, add(CFA_XSP16, literal(-1)))
        CFI (cfiCond48) CFA_SP SP+0
        CFI (cfiCond48) CFA_XSP16 add(XSP16, 9)
        CFI Block cfiCond49 Using cfiCommon0
        CFI (cfiCond49) NoFunction
        CFI (cfiCond49) Conditional ??CrossCallReturnLabel_6
        CFI (cfiCond49) R6 load(1, XDATA, add(CFA_XSP16, literal(-9)))
        CFI (cfiCond49) VB load(1, XDATA, add(CFA_XSP16, literal(-8)))
        CFI (cfiCond49) V0 load(1, XDATA, add(CFA_XSP16, literal(-7)))
        CFI (cfiCond49) R7 load(1, XDATA, add(CFA_XSP16, literal(-6)))
        CFI (cfiCond49) ?RET_LOW load(1, XDATA, add(CFA_XSP16, literal(-5)))
        CFI (cfiCond49) ?RET_HIGH load(1, XDATA, add(CFA_XSP16, literal(-4)))
        CFI (cfiCond49) ?BRET_EXT load(1, XDATA, add(CFA_XSP16, literal(-3)))
        CFI (cfiCond49) DPL0 load(1, XDATA, add(CFA_XSP16, literal(-2)))
        CFI (cfiCond49) DPH0 load(1, XDATA, add(CFA_XSP16, literal(-1)))
        CFI (cfiCond49) CFA_SP SP+0
        CFI (cfiCond49) CFA_XSP16 add(XSP16, 9)
        CFI Block cfiCond50 Using cfiCommon0
        CFI (cfiCond50) NoFunction
        CFI (cfiCond50) Conditional ??CrossCallReturnLabel_7
        CFI (cfiCond50) R6 load(1, XDATA, add(CFA_XSP16, literal(-9)))
        CFI (cfiCond50) VB load(1, XDATA, add(CFA_XSP16, literal(-8)))
        CFI (cfiCond50) V0 load(1, XDATA, add(CFA_XSP16, literal(-7)))
        CFI (cfiCond50) R7 load(1, XDATA, add(CFA_XSP16, literal(-6)))
        CFI (cfiCond50) ?RET_LOW load(1, XDATA, add(CFA_XSP16, literal(-5)))
        CFI (cfiCond50) ?RET_HIGH load(1, XDATA, add(CFA_XSP16, literal(-4)))
        CFI (cfiCond50) ?BRET_EXT load(1, XDATA, add(CFA_XSP16, literal(-3)))
        CFI (cfiCond50) DPL0 load(1, XDATA, add(CFA_XSP16, literal(-2)))
        CFI (cfiCond50) DPH0 load(1, XDATA, add(CFA_XSP16, literal(-1)))
        CFI (cfiCond50) CFA_SP SP+0
        CFI (cfiCond50) CFA_XSP16 add(XSP16, 9)
        CFI Block cfiPicker51 Using cfiCommon1
        CFI (cfiPicker51) NoFunction
        CFI (cfiPicker51) Picker
        MOVX    @DPTR,A
        ; Setup parameters for call to function rfid_uart_recv
        ; Setup parameters for call to function rfid_uart_recv
        ; Setup parameters for call to function rfid_uart_recv
        ; Setup parameters for call to function rfid_uart_recv
        ; Setup parameters for call to function rfid_uart_recv
        ; Setup parameters for call to function rfid_uart_recv
        LCALL   ??rfid_uart_recv?relay
        MOV     A,R2
        RET
        CFI EndBlock cfiCond45
        CFI EndBlock cfiCond46
        CFI EndBlock cfiCond47
        CFI EndBlock cfiCond48
        CFI EndBlock cfiCond49
        CFI EndBlock cfiCond50
        CFI EndBlock cfiPicker51

        RSEG XDATA_ID:CODE:NOROOT(0)
        DATA
`?<Initializer for myStartRetryDelay>`:
        DW 10000

        RSEG XDATA_ID:CODE:NOROOT(0)
        DATA
`?<Initializer for myCheckCardDelay>`:
        DW 250

        RSEG XDATA_ID:CODE:NOROOT(0)
        DATA
`?<Initializer for rfidOn>`:
        DB 1

        RSEG BANK_RELAYS:CODE:REORDER:NOROOT(0)
??zb_HandleOsalEvent?relay:
        LCALL   ?BDISPATCH
        DATA
        DC24    zb_HandleOsalEvent

        RSEG BANK_RELAYS:CODE:REORDER:NOROOT(0)
??zb_HandleKeys?relay:
        LCALL   ?BDISPATCH
        DATA
        DC24    zb_HandleKeys

        RSEG BANK_RELAYS:CODE:REORDER:NOROOT(0)
??zb_StartConfirm?relay:
        LCALL   ?BDISPATCH
        DATA
        DC24    zb_StartConfirm

        RSEG BANK_RELAYS:CODE:REORDER:NOROOT(0)
??zb_SendDataConfirm?relay:
        LCALL   ?BDISPATCH
        DATA
        DC24    zb_SendDataConfirm

        RSEG BANK_RELAYS:CODE:REORDER:NOROOT(0)
??zb_BindConfirm?relay:
        LCALL   ?BDISPATCH
        DATA
        DC24    zb_BindConfirm

        RSEG BANK_RELAYS:CODE:REORDER:NOROOT(0)
??zb_AllowBindConfirm?relay:
        LCALL   ?BDISPATCH
        DATA
        DC24    zb_AllowBindConfirm

        RSEG BANK_RELAYS:CODE:REORDER:NOROOT(0)
??zb_FindDeviceConfirm?relay:
        LCALL   ?BDISPATCH
        DATA
        DC24    zb_FindDeviceConfirm

        RSEG BANK_RELAYS:CODE:REORDER:NOROOT(0)
??zb_HanderMsg?relay:
        LCALL   ?BDISPATCH
        DATA
        DC24    zb_HanderMsg

        RSEG BANK_RELAYS:CODE:REORDER:NOROOT(0)
??zb_ReceiveDataIndication?relay:
        LCALL   ?BDISPATCH
        DATA
        DC24    zb_ReceiveDataIndication

        RSEG BANK_RELAYS:CODE:REORDER:NOROOT(0)
??paramRead?relay:
        LCALL   ?BDISPATCH
        DATA
        DC24    paramRead

        RSEG BANK_RELAYS:CODE:REORDER:NOROOT(0)
??rfid_uart_init?relay:
        LCALL   ?BDISPATCH
        DATA
        DC24    rfid_uart_init

        RSEG BANK_RELAYS:CODE:REORDER:NOROOT(0)
??rfid_uart_send?relay:
        LCALL   ?BDISPATCH
        DATA
        DC24    rfid_uart_send

        RSEG BANK_RELAYS:CODE:REORDER:NOROOT(0)
??rfid_uart_recv?relay:
        LCALL   ?BDISPATCH
        DATA
        DC24    rfid_uart_recv

        RSEG BANK_RELAYS:CODE:REORDER:NOROOT(0)
??rfid_commands?relay:
        LCALL   ?BDISPATCH
        DATA
        DC24    rfid_commands

        RSEG BANK_RELAYS:CODE:REORDER:NOROOT(0)
??datxor?relay:
        LCALL   ?BDISPATCH
        DATA
        DC24    datxor

        RSEG BANK_RELAYS:CODE:REORDER:NOROOT(0)
??rfid_id?relay:
        LCALL   ?BDISPATCH
        DATA
        DC24    rfid_id

        END
// 
// 1 664 bytes in segment BANKED_CODE
//    96 bytes in segment BANK_RELAYS
//     9 bytes in segment SFR_AN
//     5 bytes in segment XDATA_I
//     5 bytes in segment XDATA_ID
//    22 bytes in segment XDATA_ROM_C
//    54 bytes in segment XDATA_Z
// 
// 1 765 bytes of CODE  memory
//    22 bytes of CONST memory
//     0 bytes of DATA  memory (+ 9 bytes shared)
//    59 bytes of XDATA memory
//
//Errors: none
//Warnings: none
